   1              		.file	"MCP3427.c"
   2              		.option nopic
   3              		.text
   4              		.section	.text.MCP3427_setup,"ax",@progbits
   5              		.align	1
   6              		.globl	MCP3427_setup
   8              	MCP3427_setup:
   9 0000 93078006 		li	a5,104
  10 0004 4CC1     		sw	a1,4(a0)
  11 0006 2300F500 		sb	a5,0(a0)
  12 000a 8280     		ret
  14              		.section	.text.MCP3427_read,"ax",@progbits
  15              		.align	1
  16              		.globl	MCP3427_read
  18              	MCP3427_read:
  19 0000 17030000 		call	t0,__riscv_save_5
  19      E7020300 
  20 0008 9206     		slli	a3,a3,4
  21 000a 0A07     		slli	a4,a4,2
  22 000c D98E     		or	a3,a3,a4
  23 000e DD8E     		or	a3,a3,a5
  24 0010 1606     		slli	a2,a2,5
  25 0012 9E05     		slli	a1,a1,7
  26 0014 D18E     		or	a3,a3,a2
  27 0016 CD8E     		or	a3,a3,a1
  28 0018 83450500 		lbu	a1,0(a0)
  29 001c AA84     		mv	s1,a0
  30 001e 4841     		lw	a0,4(a0)
  31 0020 8605     		slli	a1,a1,1
  32 0022 93F5E50F 		andi	a1,a1,254
  33 0026 13F4F60F 		andi	s0,a3,0xff
  34 002a 97000000 		call	I2C_start
  34      E7800000 
  35 0032 11C5     		beqz	a0,.L3
  36              	.L5:
  37 0034 7D55     		li	a0,-1
  38              	.L2:
  39 0036 17030000 		tail	__riscv_restore_5
  39      67000300 
  40              	.L3:
  41 003e C840     		lw	a0,4(s1)
  42 0040 A285     		mv	a1,s0
  43 0042 97000000 		call	I2C_write
  43      E7800000 
  44 004a 6DF5     		bnez	a0,.L5
  45 004c C840     		lw	a0,4(s1)
  46 004e 97000000 		call	I2C_stop
  46      E7800000 
  47 0056 13054006 		li	a0,100
  48 005a 97000000 		call	delayUs
  48      E7800000 
  49 0062 83C50400 		lbu	a1,0(s1)
  50 0066 C840     		lw	a0,4(s1)
  51 0068 8605     		slli	a1,a1,1
  52 006a 93E51500 		ori	a1,a1,1
  53 006e 93F5F50F 		andi	a1,a1,0xff
  54 0072 97000000 		call	I2C_start
  54      E7800000 
  55 007a 2A84     		mv	s0,a0
  56 007c 0145     		li	a0,0
  57 007e 45FC     		bnez	s0,.L2
  58 0080 C840     		lw	a0,4(s1)
  59 0082 8145     		li	a1,0
  60 0084 97000000 		call	I2C_read
  60      E7800000 
  61 008c 2A8A     		mv	s4,a0
  62 008e C840     		lw	a0,4(s1)
  63 0090 8145     		li	a1,0
  64 0092 97000000 		call	I2C_read
  64      E7800000 
  65 009a AA89     		mv	s3,a0
  66 009c C840     		lw	a0,4(s1)
  67 009e 8545     		li	a1,1
  68 00a0 97000000 		call	I2C_read
  68      E7800000 
  69 00a8 2A89     		mv	s2,a0
  70 00aa C840     		lw	a0,4(s1)
  71 00ac 97000000 		call	I2C_stop
  71      E7800000 
  72 00b4 0145     		li	a0,0
  73 00b6 8146     		li	a3,0
  74 00b8 0147     		li	a4,0
  75 00ba 0543     		li	t1,1
  76 00bc 9D48     		li	a7,7
  77 00be 2148     		li	a6,8
  78              	.L6:
  79 00c0 B317E300 		sll	a5,t1,a4
  80 00c4 3376FA00 		and	a2,s4,a5
  81 00c8 B385E840 		sub	a1,a7,a4
  82 00cc 3356E640 		sra	a2,a2,a4
  83 00d0 3316B600 		sll	a2,a2,a1
  84 00d4 518C     		or	s0,a2,s0
  85 00d6 33F6F900 		and	a2,s3,a5
  86 00da B377F900 		and	a5,s2,a5
  87 00de 3356E640 		sra	a2,a2,a4
  88 00e2 B3D7E740 		sra	a5,a5,a4
  89 00e6 3316B600 		sll	a2,a2,a1
  90 00ea B397B700 		sll	a5,a5,a1
  91 00ee D18E     		or	a3,a2,a3
  92 00f0 5D8D     		or	a0,a5,a0
  93 00f2 0507     		addi	a4,a4,1
  94 00f4 1374F40F 		andi	s0,s0,0xff
  95 00f8 93F6F60F 		andi	a3,a3,0xff
  96 00fc 1375F50F 		andi	a0,a0,0xff
  97 0100 E31007FD 		bne	a4,a6,.L6
  98 0104 4204     		slli	s0,s0,16
  99 0106 A206     		slli	a3,a3,8
 100 0108 558C     		or	s0,s0,a3
 101 010a 418D     		or	a0,s0,a0
 102 010c 2DB7     		j	.L2
 104              		.comm	registers_0_addr,4,4
 105              		.comm	mapped_channel_mask,12,4
 106              		.comm	channel_mask,12,4
 107              		.ident	"GCC: (Microchip SoftConsole GNU RISC-V Embedded GCC, 64-bit) 8.2.0"
DEFINED SYMBOLS
                            *ABS*:0000000000000000 MCP3427.c
C:\Users\tecchio\AppData\Local\Temp\ccPqNoJd.s:8      .text.MCP3427_setup:0000000000000000 MCP3427_setup
C:\Users\tecchio\AppData\Local\Temp\ccPqNoJd.s:18     .text.MCP3427_read:0000000000000000 MCP3427_read
                            *COM*:0000000000000004 registers_0_addr
                            *COM*:000000000000000c mapped_channel_mask
                            *COM*:000000000000000c channel_mask
C:\Users\tecchio\AppData\Local\Temp\ccPqNoJd.s:40     .text.MCP3427_read:000000000000003e .L3
C:\Users\tecchio\AppData\Local\Temp\ccPqNoJd.s:36     .text.MCP3427_read:0000000000000034 .L5
C:\Users\tecchio\AppData\Local\Temp\ccPqNoJd.s:38     .text.MCP3427_read:0000000000000036 .L2
C:\Users\tecchio\AppData\Local\Temp\ccPqNoJd.s:78     .text.MCP3427_read:00000000000000c0 .L6

UNDEFINED SYMBOLS
__riscv_save_5
I2C_start
__riscv_restore_5
I2C_write
I2C_stop
delayUs
I2C_read
