
MyProj.elf:     file format elf32-littleriscv
MyProj.elf
architecture: riscv:rv32, flags 0x00000112:
EXEC_P, HAS_SYMS, D_PAGED
start address 0x80000000

Program Header:
    LOAD off    0x00001000 vaddr 0x80000000 paddr 0x80000000 align 2**12
         filesz 0x000055b0 memsz 0x00009fb0 flags rwx

Sections:
Idx Name                     Size      VMA       LMA       File off  Algn  Flags
  0 .text                    000051b0  80000000  80000000  00001000  2**4  CONTENTS, ALLOC, LOAD, READONLY, CODE
  1 .sdata2.MCPCALIBCHAN     00000008  800051b0  800051b0  000061b0  2**2  CONTENTS, ALLOC, LOAD, READONLY, DATA
  2 .sdata2.calpulse_chanmap 00000008  800051b8  800051b8  000061b8  2**2  CONTENTS, ALLOC, LOAD, READONLY, DATA
  3 .sdata                   00000010  800051c0  800051c0  000061c0  2**4  CONTENTS, ALLOC, LOAD, DATA
  4 .data                    000003e0  800051d0  800051d0  000061d0  2**4  CONTENTS, ALLOC, LOAD, DATA
  5 .sbss                    00000010  800055b0  800055b0  000065b0  2**4  ALLOC
  6 .bss                     000031f0  800055c0  800055c0  000065b0  2**4  ALLOC
  7 .heap                    00001000  800087b0  800087b0  000065b0  2**4  ALLOC
  8 .stack                   00000800  800097b0  800097b0  000065b0  2**4  ALLOC
  9 .riscv.attributes        0000001f  00000000  00000000  000065b0  2**0  CONTENTS, READONLY
 10 .comment                 00000043  00000000  00000000  000065cf  2**0  CONTENTS, READONLY
 11 .debug_frame             00000020  00000000  00000000  00006614  2**2  CONTENTS, READONLY, DEBUGGING
SYMBOL TABLE:
80000000 l    d  .text	00000000 .text
800051b0 l    d  .sdata2.MCPCALIBCHAN	00000000 .sdata2.MCPCALIBCHAN
800051b8 l    d  .sdata2.calpulse_chanmap	00000000 .sdata2.calpulse_chanmap
800051c0 l    d  .sdata	00000000 .sdata
800051d0 l    d  .data	00000000 .data
800055b0 l    d  .sbss	00000000 .sbss
800055c0 l    d  .bss	00000000 .bss
800087b0 l    d  .heap	00000000 .heap
800097b0 l    d  .stack	00000000 .stack
00000000 l    d  .riscv.attributes	00000000 .riscv.attributes
00000000 l    d  .comment	00000000 .comment
00000000 l    d  .debug_frame	00000000 .debug_frame
00000000 l    df *ABS*	00000000 ./riscv_hal/entry.o
80000006 l       .text	00000000 handle_reset
80000002 l       .text	00000000 nmi_vector
80000004 l       .text	00000000 trap_vector
8000002e l       .text	00000000 trap_entry
00000000 l    df *ABS*	00000000 init.c
00000000 l    df *ABS*	00000000 riscv_hal.c
800055b0 l     O .sbss	00000008 g_systick_increment
00000000 l    df *ABS*	00000000 riscv_hal_stubs.c
00000000 l    df *ABS*	00000000 syscall.c
00000000 l    df *ABS*	00000000 core_uart_apb.c
00000000 l    df *ABS*	00000000 core_sysservices_pf.c
80000490 l     F .text	000000f8 execute_ss_command
00000000 l    df *ABS*	00000000 core_spi.c
800005c0 l     F .text	00000030 recover_from_rx_overflow.isra.0
00000000 l    df *ABS*	00000000 core_pwm.c
80005018 l     O .text	00000011 g_pwm_id_mask_lut
8000502c l     O .text	00000044 g_pwm_negedge_offset_lut
80005070 l     O .text	00000044 g_pwm_posedge_offset_lut
00000000 l    df *ABS*	00000000 core_gpio.c
00000000 l    df *ABS*	00000000 ADC124S051.c
00000000 l    df *ABS*	00000000 HDC2080.c
00000000 l    df *ABS*	00000000 I2C.c
00000000 l    df *ABS*	00000000 LTC2634.c
00000000 l    df *ABS*	00000000 MCP23S17.c
00000000 l    df *ABS*	00000000 SPI_daisy.c
00000000 l    df *ABS*	00000000 autobitslip.c
00000000 l    df *ABS*	00000000 bme280_SPI_daisy.c
00000000 l    df *ABS*	00000000 main.c
00000000 l    df *ABS*	00000000 utils.c
00000000 l    df *ABS*	00000000 memcpy.c
800055cc g     O .bss	0000000c channel_mask
80004cf0 g     F .text	000000cc init_DIGIs
800051b0 g     O .sdata2.MCPCALIBCHAN	00000008 MCPCALIBCHAN
80006c14 g     O .bss	00000008 g_gpio
80001176 g     F .text	000000ca LTC2634_setup
800051b8 g     O .sdata2.calpulse_chanmap	00000008 calpulse_chanmap
80004bfe g     F .text	0000003e resetFIFO
00000800 g       *ABS*	00000000 STACK_SIZE
80000294  w    F .text	00000004 External_11_IRQHandler
800059c0 g       .sdata	00000000 __global_pointer$
80004dc4 g     F .text	00000028 .hidden __riscv_save_8
80000420 g     F .text	00000042 UART_get_rx
80001314 g     F .text	0000004c MCP_setup
800055d8 g     O .bss	00000040 current_gains
80005618 g     O .bss	00000010 caldac1
80000d78 g     F .text	00000048 ADC124S051_read
80001f1e g     F .text	00000022 bme280_get_regs
80004e10 g     F .text	0000000c .hidden __riscv_restore_3
800051d0 g       *ABS*	00000000 __data_load
80005628 g     O .bss	00000008 DS28
80000266  w    F .text	00000002 SysTick_Handler
8000027c  w    F .text	00000004 External_5_IRQHandler
80005250 g     O .data	00000060 channel_map
80001eac g     F .text	00000072 bme280_set_regs
80000386 g       .text	00000000 HW_get_8bit_reg_field
80004dfc g     F .text	00000020 .hidden __riscv_restore_10
800040d0 g     F .text	00000022 DCS_pass_sim_param
80001536 g     F .text	00000032 MCP_pinRead
80004dc4 g     F .text	00000028 .hidden __riscv_save_11
80000aea g     F .text	00000056 PWM_enable
800055b0 g       .sbss	00000000 __sbss_start
80004082 g     F .text	00000020 hwdelay
80005630 g     O .bss	00000002 dutyCycle
80006c1c g     O .bss	00000064 rx_buff
800002ea g       .text	00000000 HW_set_32bit_reg
80006c80 g     O .bss	00000004 readout_noUARTflag
80006c84 g     O .bss	00000004 thischanmask
800002b8  w    F .text	00000004 External_20_IRQHandler
80006c88 g     O .bss	00000004 g_pwm
80004e10 g     F .text	0000000c .hidden __riscv_restore_2
80005634 g     O .bss	00000068 sensorMCP
80006c8c g     O .bss	00000002 bufcount_place_holder
80001360 g     F .text	00000058 MCP_wordWrite
8000569c g     O .bss	00000004 registers_0_addr
80004eb2 g     F .text	000000b6 memcpy
800055b8 g     O .sbss	00000004 g_css_pf_base_addr
800056a0 g     O .bss	00000014 spi_ambtemp_hv
800051c0 g       .sdata	00000000 __sdata_start
80001130 g     F .text	00000046 I2C_start
80000588 g     F .text	00000006 SYS_init
80000e4c g     F .text	0000002a hdc2080_set_reg
80006c90 g     O .bss	00000008 g_uart
80000364 g       .text	00000000 HW_set_8bit_reg_field
800002d0  w    F .text	00000004 External_26_IRQHandler
800056b4 g     O .bss	00000010 caldac0
80004e3c g     F .text	0000002c .hidden __udivsi3
80000b40 g     F .text	0000005a PWM_disable
80000170 g     F .text	000000ee handle_trap
80004dbc g     F .text	00000030 .hidden __riscv_save_12
00020000 g       *ABS*	00000000 RAM_SIZE
80000290  w    F .text	00000004 External_10_IRQHandler
8000410a g     F .text	0000001c DCS_sim_packet_send
80000782 g     F .text	0000026e SPI_transfer_block
80004dfc g     F .text	00000020 .hidden __riscv_restore_11
80001240 g     F .text	0000008a LTC2634_write
80004dec g     F .text	0000000c .hidden __riscv_save_1
800056c4 g     O .bss	00000300 strawsHV
80004e10 g     F .text	0000000c .hidden __riscv_restore_0
800041c8 g     F .text	0000006c read_histogram
800009f0 g     F .text	000000fa PWM_init
80000d46 g     F .text	00000032 ADC124S051_daisy_read
80004dd2 g     F .text	0000001a .hidden __riscv_save_7
800044e0 g     F .text	0000002a bufWrite
80000f22 g     F .text	0000002e hdc2080_reset
80004bd2 g     F .text	0000002c outBufSend
800002e0  w    F .text	00000004 External_30_IRQHandler
800002ac  w    F .text	00000004 External_17_IRQHandler
80000b9a g     F .text	00000056 PWM_set_duty_cycle
800097b0 g       .heap	00000000 _heap_end
800059c4 g     O .bss	0000000c mapped_channel_mask
8000058e g     F .text	00000018 SYS_get_serial_number
80004e06 g     F .text	00000016 .hidden __riscv_restore_5
80000696 g     F .text	0000004e SPI_set_slave_select
800087b0 g       .bss	00000000 __bss_end
800013f8 g     F .text	00000044 MCP_pullupMode
80000eb0 g     F .text	0000003a hdc2080_read_humidity
800059d0 g     O .bss	00000240 i2c_slowamps
800000e0 g     F .text	0000008e _init
80000358 g       .text	00000000 HW_set_8bit_reg
8000035e g       .text	00000000 HW_get_8bit_reg
80004e06 g     F .text	00000016 .hidden __riscv_restore_6
80001634 g     F .text	0000007c SPI_daisy_read
80004410 g     F .text	000000d0 get_mapped_channels
80006c98 g     O .bss	0000001e init_buff
800043e4 g     F .text	0000002c adc_read
8000171e g     F .text	0000004c SPI_daisy_rw_cycle
800055c0 g       .sbss	00000000 __sbss_end
800002f2 g       .text	00000000 HW_set_32bit_reg_field
80005430 g     O .data	000000c0 default_threshs_cal
80004052 g     F .text	0000000e readU16fromBytes
80005c10 g     O .bss	00000014 spi_ambtemp_cal
80004dc4 g     F .text	00000028 .hidden __riscv_save_9
800002cc  w    F .text	00000004 External_25_IRQHandler
800055c0 g     O .bss	0000000c adc_phases
80001568 g     F .text	000000cc SPI_daisy_setup
80009fb0 g       .stack	00000000 __stack_top
800002dc  w    F .text	00000004 External_29_IRQHandler
80004e68 g     F .text	00000008 .hidden __umodsi3
80004dd2 g     F .text	0000001a .hidden __riscv_save_4
80004126 g     F .text	00000064 digi_write
80000462 g     F .text	0000002e UART_polled_tx_string
80005c24 g     O .bss	00000600 dacs
80000eea g     F .text	00000038 hdc2080_trigger_measurement
80001ffa g     F .text	00000026 bme280_get_calib
8000029c  w    F .text	00000004 External_13_IRQHandler
80000270  w    F .text	00000004 External_2_IRQHandler
00001000 g       *ABS*	00000000 HEAP_SIZE
80000298  w    F .text	00000004 External_12_IRQHandler
800040b8 g     F .text	00000018 delayUs
80004dec g     F .text	0000000c .hidden __riscv_save_3
80006224 g     O .bss	00000018 i2c_sensor
800003ea g     F .text	00000036 UART_send
800054f0 g     O .data	000000c0 default_threshs_hv
80004234 g     F .text	00000142 adc_spi_core
80000000 g       .text	00000000 _start
80000dc0 g     F .text	0000002a hdc2080_open_reg
80006cb6 g     O .bss	00000002 bufcount
80000dea g     F .text	00000062 hdc2080_get_reg
80006cb8 g     O .bss	00000100 buffer
800051c0 g       *ABS*	00000000 __sdata_load
800055b0 g       .data	00000000 __data_end
80004e1c g     F .text	00000014 .hidden __mulsi3
80006db8 g     O .bss	00000004 readout_numTriggers
80004642 g     F .text	0000025a read_data
8000623c g     O .bss	00000040 current_thresholds
800002b0  w    F .text	00000004 External_18_IRQHandler
80000314 g       .text	00000000 HW_get_32bit_reg_field
80006dbc g     O .bss	00001000 dataBuffer
8000627c g     O .bss	00000001 pulserOn
8000450a g     F .text	00000138 init_adc
8000147e g     F .text	00000050 MCP_byteRead
80000bf0 g     F .text	00000098 GPIO_init
8000065a g     F .text	0000003c SPI_configure_master_mode
800050b4 g     O .text	00000010 default_caldac
80007dbc g     O .bss	00000002 readout_obloc
800002c0  w    F .text	00000004 External_22_IRQHandler
80004dc4 g     F .text	00000028 .hidden __riscv_save_10
800002a4  w    F .text	00000004 External_15_IRQHandler
80004e06 g     F .text	00000016 .hidden __riscv_restore_4
80004dfc g     F .text	00000020 .hidden __riscv_restore_8
80000000 g       *ABS*	00000000 RAM_START_ADDRESS
80004dd2 g     F .text	0000001a .hidden __riscv_save_6
80001f40 g     F .text	000000ba bme280_init_settings
800055c0 g       .bss	00000000 __bss_start
800002a8  w    F .text	00000004 External_16_IRQHandler
80004f68 g     F .text	000000a8 memset
80002020 g     F .text	0000005e bme280_get_htp
80004dfc g     F .text	00000020 .hidden __riscv_restore_9
80004e06 g     F .text	00000016 .hidden __riscv_restore_7
8000207e g     F .text	00001fd4 main
800040a2 g     F .text	00000016 delay_ms
800002d8  w    F .text	00000004 External_28_IRQHandler
80004376 g     F .text	00000036 adc_spi
80000324 g       .text	00000000 HW_get_16bit_reg
80004e34 g     F .text	00000058 .hidden __divsi3
800051d0 g       .sdata	00000000 __sdata_end
800013b8 g     F .text	00000040 MCP_pinMode
80000fe4 g     F .text	00000096 I2C_read
800051c3 g     O .sdata	00000001 hvcal
800097b0 g       .heap	00000000 __heap_end
800002a0  w    F .text	00000004 External_14_IRQHandler
80007dc0 g     O .bss	00000004 calibration_done
80006280 g     O .bss	0000000c I2CserialHV
8000016e g     F .text	00000002 _fini
80005370 g     O .data	000000c0 default_gains_hv
800051d0 g     O .data	00000080 ext_irq_handler_table
80004060 g     F .text	00000022 readU32fromBytes
8000032a g       .text	00000000 HW_set_16bit_reg_field
800097b0 g       .stack	00000000 __stack_bottom
8000025e  w    F .text	00000008 Software_IRQHandler
80007dc4 g     O .bss	00000004 readout_mode
80007dc8 g     O .bss	000007d0 outBuffer
800002d4  w    F .text	00000004 External_27_IRQHandler
80000288  w    F .text	00000004 External_8_IRQHandler
8000028c  w    F .text	00000004 External_9_IRQHandler
800014ce g     F .text	00000054 MCP_wordRead
800087b0 g       .heap	00000000 __heap_start
80000268  w    F .text	00000004 Invalid_IRQHandler
80004dec g     F .text	0000000c .hidden __riscv_save_2
80000274  w    F .text	00000004 External_3_IRQHandler
80004c96 g     F .text	0000005a setPreampThreshold
80000736 g     F .text	0000004c SPI_transfer_frame
8000628c g     O .bss	00000014 spi_sensor
800062a0 g     O .bss	00000300 strawsCal
800016b0 g     F .text	0000006e SPI_daisy_write
80008598 g     O .bss	00000002 readout_obloc_place_holder
80004dd2 g     F .text	0000001a .hidden __riscv_save_5
800002b4  w    F .text	00000004 External_19_IRQHandler
800065a0 g     O .bss	00000001 pulserOdd
800087b0 g       .bss	00000000 _end
80000e76 g     F .text	0000003a hdc2080_read_temp
8000418a g     F .text	0000003e digi_read
800005a6 g     F .text	0000001a SYS_get_design_info
800005f0 g     F .text	0000006a SPI_init
80004c3c g     F .text	0000005a setPreampGain
8000859c g     O .bss	00000004 writePtr
80000f50 g     F .text	00000058 hdc2080_setup
800085a0 g     O .bss	0000017c g_spi
80004e8c g     F .text	00000024 .hidden __modsi3
80000392 g     F .text	00000058 UART_init
8000871c g     O .bss	00000004 readout_maxDelay
8000176a g     F .text	00000742 autobitslip
80001522 g     F .text	00000014 MCP_pinReadAll
800002ee g       .text	00000000 HW_get_32bit_reg
80004df8 g     F .text	00000024 .hidden __riscv_restore_12
80008720 g     O .bss	00000080 calibration_count
80004dec g     F .text	0000000c .hidden __riscv_save_0
800065a4 g     O .bss	00000180 slowamps
800002e8 g     F .text	00000002 _exit
8000031e g       .text	00000000 HW_set_16bit_reg
8000489c g     F .text	00000336 get_rates
800040f2 g     F .text	00000018 DCS_pass_addr_data
80000fa8 g     F .text	0000003c I2C_setup
80006724 g     O .bss	0000000c I2CserialCal
8000026c  w    F .text	00000004 External_1_IRQHandler
80000280  w    F .text	00000004 External_6_IRQHandler
800052b0 g     O .data	000000c0 default_gains_cal
800002e4  w    F .text	00000004 External_31_IRQHandler
8000143c g     F .text	00000042 MCP_pinWrite
800051d0 g       .data	00000000 __data_start
80004e10 g     F .text	0000000c .hidden __riscv_restore_1
80006730 g     O .bss	00000004 pulserDelay
800006e4 g     F .text	00000052 SPI_clear_slave_select
800002bc  w    F .text	00000004 External_21_IRQHandler
8000034c g       .text	00000000 HW_get_16bit_reg_field
800002c4  w    F .text	00000004 External_23_IRQHandler
800087a0 g     O .bss	00000004 readout_wordsPerTrigger
800002c8  w    F .text	00000004 External_24_IRQHandler
800012ca g     F .text	0000004a MCP_byteWrite
80000c88 g     F .text	000000be GPIO_set_output
80000278  w    F .text	00000004 External_4_IRQHandler
800043ac g     F .text	00000038 adc_write
8000107a g     F .text	0000003a I2C_stop
800010b4 g     F .text	0000007c I2C_write
80000284  w    F .text	00000004 External_7_IRQHandler
80006734 g     O .bss	000004e0 preampMCP



Disassembly of section .text:

80000000 <_start>:
_start():
80000000:	a019                	j	80000006 <handle_reset>

80000002 <nmi_vector>:
nmi_vector():
80000002:	a001                	j	80000002 <nmi_vector>

80000004 <trap_vector>:
trap_vector():
80000004:	a02d                	j	8000002e <trap_entry>

80000006 <handle_reset>:
handle_reset():
80000006:	00000297          	auipc	t0,0x0
8000000a:	02828293          	addi	t0,t0,40 # 8000002e <trap_entry>
8000000e:	30529073          	csrw	mtvec,t0
80000012:	30005073          	csrwi	mstatus,0
80000016:	30405073          	csrwi	mie,0
8000001a:	00006197          	auipc	gp,0x6
8000001e:	9a618193          	addi	gp,gp,-1626 # 800059c0 <__global_pointer$>
80000022:	0000a117          	auipc	sp,0xa
80000026:	f8e10113          	addi	sp,sp,-114 # 80009fb0 <__stack_top>
8000002a:	0b60006f          	j	800000e0 <_init>

8000002e <trap_entry>:
trap_entry():
8000002e:	7119                	addi	sp,sp,-128
80000030:	c006                	sw	ra,0(sp)
80000032:	c20a                	sw	sp,4(sp)
80000034:	c40e                	sw	gp,8(sp)
80000036:	c612                	sw	tp,12(sp)
80000038:	c816                	sw	t0,16(sp)
8000003a:	ca1a                	sw	t1,20(sp)
8000003c:	cc1e                	sw	t2,24(sp)
8000003e:	ce22                	sw	s0,28(sp)
80000040:	d026                	sw	s1,32(sp)
80000042:	d22a                	sw	a0,36(sp)
80000044:	d42e                	sw	a1,40(sp)
80000046:	d632                	sw	a2,44(sp)
80000048:	d836                	sw	a3,48(sp)
8000004a:	da3a                	sw	a4,52(sp)
8000004c:	dc3e                	sw	a5,56(sp)
8000004e:	de42                	sw	a6,60(sp)
80000050:	c0c6                	sw	a7,64(sp)
80000052:	c2ca                	sw	s2,68(sp)
80000054:	c4ce                	sw	s3,72(sp)
80000056:	c6d2                	sw	s4,76(sp)
80000058:	c8d6                	sw	s5,80(sp)
8000005a:	cada                	sw	s6,84(sp)
8000005c:	ccde                	sw	s7,88(sp)
8000005e:	cee2                	sw	s8,92(sp)
80000060:	d0e6                	sw	s9,96(sp)
80000062:	d2ea                	sw	s10,100(sp)
80000064:	d4ee                	sw	s11,104(sp)
80000066:	d6f2                	sw	t3,108(sp)
80000068:	d8f6                	sw	t4,112(sp)
8000006a:	dafa                	sw	t5,116(sp)
8000006c:	dcfe                	sw	t6,120(sp)
8000006e:	341022f3          	csrr	t0,mepc
80000072:	de96                	sw	t0,124(sp)
80000074:	34202573          	csrr	a0,mcause
80000078:	341025f3          	csrr	a1,mepc
8000007c:	860a                	mv	a2,sp
8000007e:	0f2000ef          	jal	ra,80000170 <handle_trap>
80000082:	34151073          	csrw	mepc,a0
80000086:	000022b7          	lui	t0,0x2
8000008a:	80028293          	addi	t0,t0,-2048 # 1800 <HEAP_SIZE+0x800>
8000008e:	3002a073          	csrs	mstatus,t0
80000092:	4082                	lw	ra,0(sp)
80000094:	4112                	lw	sp,4(sp)
80000096:	41a2                	lw	gp,8(sp)
80000098:	4232                	lw	tp,12(sp)
8000009a:	42c2                	lw	t0,16(sp)
8000009c:	4352                	lw	t1,20(sp)
8000009e:	43e2                	lw	t2,24(sp)
800000a0:	4472                	lw	s0,28(sp)
800000a2:	5482                	lw	s1,32(sp)
800000a4:	5512                	lw	a0,36(sp)
800000a6:	55a2                	lw	a1,40(sp)
800000a8:	5632                	lw	a2,44(sp)
800000aa:	56c2                	lw	a3,48(sp)
800000ac:	5752                	lw	a4,52(sp)
800000ae:	57e2                	lw	a5,56(sp)
800000b0:	5872                	lw	a6,60(sp)
800000b2:	4886                	lw	a7,64(sp)
800000b4:	4916                	lw	s2,68(sp)
800000b6:	49a6                	lw	s3,72(sp)
800000b8:	4a36                	lw	s4,76(sp)
800000ba:	4ac6                	lw	s5,80(sp)
800000bc:	4b56                	lw	s6,84(sp)
800000be:	4be6                	lw	s7,88(sp)
800000c0:	4c76                	lw	s8,92(sp)
800000c2:	5c86                	lw	s9,96(sp)
800000c4:	5d16                	lw	s10,100(sp)
800000c6:	5da6                	lw	s11,104(sp)
800000c8:	5e36                	lw	t3,108(sp)
800000ca:	5ec6                	lw	t4,112(sp)
800000cc:	5f56                	lw	t5,116(sp)
800000ce:	5fe6                	lw	t6,120(sp)
800000d0:	6109                	addi	sp,sp,128
800000d2:	30200073          	mret
	...

800000e0 <_init>:
_init():
800000e0:	50d042ef          	jal	t0,80004dec <__riscv_save_0>
800000e4:	800057b7          	lui	a5,0x80005
800000e8:	1141                	addi	sp,sp,-16
800000ea:	01078793          	addi	a5,a5,16 # 80005010 <__stack_top+0xffffb060>
800000ee:	c23e                	sw	a5,4(sp)
800000f0:	80005737          	lui	a4,0x80005
800000f4:	800057b7          	lui	a5,0x80005
800000f8:	c402                	sw	zero,8(sp)
800000fa:	c602                	sw	zero,12(sp)
800000fc:	1c078793          	addi	a5,a5,448 # 800051c0 <__stack_top+0xffffb210>
80000100:	1c070713          	addi	a4,a4,448 # 800051c0 <__stack_top+0xffffb210>
80000104:	81018693          	addi	a3,gp,-2032 # 800051d0 <__data_load>
80000108:	02f6ff63          	bgeu	a3,a5,80000146 <_init+0x66>
8000010c:	81018793          	addi	a5,gp,-2032 # 800051d0 <__data_load>
80000110:	81018713          	addi	a4,gp,-2032 # 800051d0 <__data_load>
80000114:	bf018693          	addi	a3,gp,-1040 # 800055b0 <__data_end>
80000118:	02f6fd63          	bgeu	a3,a5,80000152 <_init+0x72>
8000011c:	bf018793          	addi	a5,gp,-1040 # 800055b0 <__data_end>
80000120:	c0018713          	addi	a4,gp,-1024 # 800055c0 <__sbss_end>
80000124:	02f77d63          	bgeu	a4,a5,8000015e <_init+0x7e>
80000128:	80008737          	lui	a4,0x80008
8000012c:	c0018793          	addi	a5,gp,-1024 # 800055c0 <__sbss_end>
80000130:	7b070713          	addi	a4,a4,1968 # 800087b0 <__stack_top+0xffffe800>
80000134:	02f77963          	bgeu	a4,a5,80000166 <_init+0x86>
80000138:	004c                	addi	a1,sp,4
8000013a:	4505                	li	a0,1
8000013c:	743010ef          	jal	ra,8000207e <main>
80000140:	0141                	addi	sp,sp,16
80000142:	4cf0406f          	j	80004e10 <__riscv_restore_0>
80000146:	4310                	lw	a2,0(a4)
80000148:	0791                	addi	a5,a5,4
8000014a:	0711                	addi	a4,a4,4
8000014c:	fec7ae23          	sw	a2,-4(a5)
80000150:	bf65                	j	80000108 <_init+0x28>
80000152:	4310                	lw	a2,0(a4)
80000154:	0791                	addi	a5,a5,4
80000156:	0711                	addi	a4,a4,4
80000158:	fec7ae23          	sw	a2,-4(a5)
8000015c:	bf75                	j	80000118 <_init+0x38>
8000015e:	0007a023          	sw	zero,0(a5)
80000162:	0791                	addi	a5,a5,4
80000164:	b7c1                	j	80000124 <_init+0x44>
80000166:	0007a023          	sw	zero,0(a5)
8000016a:	0791                	addi	a5,a5,4
8000016c:	b7e1                	j	80000134 <_init+0x54>

8000016e <_fini>:
_fini():
8000016e:	8082                	ret

80000170 <handle_trap>:
handle_trap():
80000170:	47d042ef          	jal	t0,80004dec <__riscv_save_0>
80000174:	84ae                	mv	s1,a1
80000176:	0c055863          	bgez	a0,80000246 <handle_trap+0xd6>
8000017a:	0506                	slli	a0,a0,0x1
8000017c:	8105                	srli	a0,a0,0x1
8000017e:	47ad                	li	a5,11
80000180:	06f51263          	bne	a0,a5,800001e4 <handle_trap+0x74>
80000184:	f14027f3          	csrr	a5,mhartid
80000188:	20078793          	addi	a5,a5,512
8000018c:	40000437          	lui	s0,0x40000
80000190:	07b2                	slli	a5,a5,0xc
80000192:	97a2                	add	a5,a5,s0
80000194:	0047a903          	lw	s2,4(a5)
80000198:	81018793          	addi	a5,gp,-2032 # 800051d0 <__data_load>
8000019c:	00291713          	slli	a4,s2,0x2
800001a0:	97ba                	add	a5,a5,a4
800001a2:	439c                	lw	a5,0(a5)
800001a4:	9782                	jalr	a5
800001a6:	f14027f3          	csrr	a5,mhartid
800001aa:	20078793          	addi	a5,a5,512
800001ae:	07b2                	slli	a5,a5,0xc
800001b0:	97a2                	add	a5,a5,s0
800001b2:	0127a223          	sw	s2,4(a5)
800001b6:	4785                	li	a5,1
800001b8:	02f51363          	bne	a0,a5,800001de <handle_trap+0x6e>
800001bc:	f14027f3          	csrr	a5,mhartid
800001c0:	0796                	slli	a5,a5,0x5
800001c2:	00595713          	srli	a4,s2,0x5
800001c6:	97ba                	add	a5,a5,a4
800001c8:	078a                	slli	a5,a5,0x2
800001ca:	943e                	add	s0,s0,a5
800001cc:	6789                	lui	a5,0x2
800001ce:	943e                	add	s0,s0,a5
800001d0:	401c                	lw	a5,0(s0)
800001d2:	01251533          	sll	a0,a0,s2
800001d6:	fff54513          	not	a0,a0
800001da:	8d7d                	and	a0,a0,a5
800001dc:	c008                	sw	a0,0(s0)
800001de:	8526                	mv	a0,s1
800001e0:	4310406f          	j	80004e10 <__riscv_restore_0>
800001e4:	479d                	li	a5,7
800001e6:	04f51763          	bne	a0,a5,80000234 <handle_trap+0xc4>
800001ea:	08000413          	li	s0,128
800001ee:	304437f3          	csrrc	a5,mie,s0
800001f2:	2895                	jal	80000266 <SysTick_Handler>
800001f4:	4400c7b7          	lui	a5,0x4400c
800001f8:	ff87a803          	lw	a6,-8(a5) # 4400bff8 <RAM_SIZE+0x43febff8>
800001fc:	ffc7a883          	lw	a7,-4(a5)
80000200:	f14027f3          	csrr	a5,mhartid
80000204:	bf018693          	addi	a3,gp,-1040 # 800055b0 <__data_end>
80000208:	4298                	lw	a4,0(a3)
8000020a:	42cc                	lw	a1,4(a3)
8000020c:	9742                	add	a4,a4,a6
8000020e:	01073533          	sltu	a0,a4,a6
80000212:	863a                	mv	a2,a4
80000214:	6705                	lui	a4,0x1
80000216:	80070713          	addi	a4,a4,-2048 # 800 <STACK_SIZE>
8000021a:	97ba                	add	a5,a5,a4
8000021c:	078e                	slli	a5,a5,0x3
8000021e:	44000737          	lui	a4,0x44000
80000222:	97ba                	add	a5,a5,a4
80000224:	95c6                	add	a1,a1,a7
80000226:	00b506b3          	add	a3,a0,a1
8000022a:	c390                	sw	a2,0(a5)
8000022c:	c3d4                	sw	a3,4(a5)
8000022e:	30442473          	csrrs	s0,mie,s0
80000232:	b775                	j	800001de <handle_trap+0x6e>
80000234:	478d                	li	a5,3
80000236:	00f51863          	bne	a0,a5,80000246 <handle_trap+0xd6>
8000023a:	2015                	jal	8000025e <Software_IRQHandler>
8000023c:	440007b7          	lui	a5,0x44000
80000240:	0007a023          	sw	zero,0(a5) # 44000000 <RAM_SIZE+0x43fe0000>
80000244:	bf69                	j	800001de <handle_trap+0x6e>
80000246:	344027f3          	csrr	a5,mip
8000024a:	343027f3          	csrr	a5,mtval
8000024e:	305027f3          	csrr	a5,mtvec
80000252:	340027f3          	csrr	a5,mscratch
80000256:	300027f3          	csrr	a5,mstatus
8000025a:	9002                	ebreak
8000025c:	b749                	j	800001de <handle_trap+0x6e>

8000025e <Software_IRQHandler>:
Software_IRQHandler():
8000025e:	38f042ef          	jal	t0,80004dec <__riscv_save_0>
80000262:	4529                	li	a0,10
80000264:	2051                	jal	800002e8 <_exit>

80000266 <SysTick_Handler>:
SysTick_Handler():
80000266:	8082                	ret

80000268 <Invalid_IRQHandler>:
Invalid_IRQHandler():
80000268:	4501                	li	a0,0
8000026a:	8082                	ret

8000026c <External_1_IRQHandler>:
External_1_IRQHandler():
8000026c:	4501                	li	a0,0
8000026e:	8082                	ret

80000270 <External_2_IRQHandler>:
External_2_IRQHandler():
80000270:	4501                	li	a0,0
80000272:	8082                	ret

80000274 <External_3_IRQHandler>:
External_3_IRQHandler():
80000274:	4501                	li	a0,0
80000276:	8082                	ret

80000278 <External_4_IRQHandler>:
External_4_IRQHandler():
80000278:	4501                	li	a0,0
8000027a:	8082                	ret

8000027c <External_5_IRQHandler>:
External_5_IRQHandler():
8000027c:	4501                	li	a0,0
8000027e:	8082                	ret

80000280 <External_6_IRQHandler>:
External_6_IRQHandler():
80000280:	4501                	li	a0,0
80000282:	8082                	ret

80000284 <External_7_IRQHandler>:
External_7_IRQHandler():
80000284:	4501                	li	a0,0
80000286:	8082                	ret

80000288 <External_8_IRQHandler>:
External_8_IRQHandler():
80000288:	4501                	li	a0,0
8000028a:	8082                	ret

8000028c <External_9_IRQHandler>:
External_9_IRQHandler():
8000028c:	4501                	li	a0,0
8000028e:	8082                	ret

80000290 <External_10_IRQHandler>:
External_10_IRQHandler():
80000290:	4501                	li	a0,0
80000292:	8082                	ret

80000294 <External_11_IRQHandler>:
External_11_IRQHandler():
80000294:	4501                	li	a0,0
80000296:	8082                	ret

80000298 <External_12_IRQHandler>:
External_12_IRQHandler():
80000298:	4501                	li	a0,0
8000029a:	8082                	ret

8000029c <External_13_IRQHandler>:
External_13_IRQHandler():
8000029c:	4501                	li	a0,0
8000029e:	8082                	ret

800002a0 <External_14_IRQHandler>:
External_14_IRQHandler():
800002a0:	4501                	li	a0,0
800002a2:	8082                	ret

800002a4 <External_15_IRQHandler>:
External_15_IRQHandler():
800002a4:	4501                	li	a0,0
800002a6:	8082                	ret

800002a8 <External_16_IRQHandler>:
External_16_IRQHandler():
800002a8:	4501                	li	a0,0
800002aa:	8082                	ret

800002ac <External_17_IRQHandler>:
External_17_IRQHandler():
800002ac:	4501                	li	a0,0
800002ae:	8082                	ret

800002b0 <External_18_IRQHandler>:
External_18_IRQHandler():
800002b0:	4501                	li	a0,0
800002b2:	8082                	ret

800002b4 <External_19_IRQHandler>:
External_19_IRQHandler():
800002b4:	4501                	li	a0,0
800002b6:	8082                	ret

800002b8 <External_20_IRQHandler>:
External_20_IRQHandler():
800002b8:	4501                	li	a0,0
800002ba:	8082                	ret

800002bc <External_21_IRQHandler>:
External_21_IRQHandler():
800002bc:	4501                	li	a0,0
800002be:	8082                	ret

800002c0 <External_22_IRQHandler>:
External_22_IRQHandler():
800002c0:	4501                	li	a0,0
800002c2:	8082                	ret

800002c4 <External_23_IRQHandler>:
External_23_IRQHandler():
800002c4:	4501                	li	a0,0
800002c6:	8082                	ret

800002c8 <External_24_IRQHandler>:
External_24_IRQHandler():
800002c8:	4501                	li	a0,0
800002ca:	8082                	ret

800002cc <External_25_IRQHandler>:
External_25_IRQHandler():
800002cc:	4501                	li	a0,0
800002ce:	8082                	ret

800002d0 <External_26_IRQHandler>:
External_26_IRQHandler():
800002d0:	4501                	li	a0,0
800002d2:	8082                	ret

800002d4 <External_27_IRQHandler>:
External_27_IRQHandler():
800002d4:	4501                	li	a0,0
800002d6:	8082                	ret

800002d8 <External_28_IRQHandler>:
External_28_IRQHandler():
800002d8:	4501                	li	a0,0
800002da:	8082                	ret

800002dc <External_29_IRQHandler>:
External_29_IRQHandler():
800002dc:	4501                	li	a0,0
800002de:	8082                	ret

800002e0 <External_30_IRQHandler>:
External_30_IRQHandler():
800002e0:	4501                	li	a0,0
800002e2:	8082                	ret

800002e4 <External_31_IRQHandler>:
External_31_IRQHandler():
800002e4:	4501                	li	a0,0
800002e6:	8082                	ret

800002e8 <_exit>:
_exit():
800002e8:	a001                	j	800002e8 <_exit>

800002ea <HW_set_32bit_reg>:
HW_set_32bit_reg():
800002ea:	c10c                	sw	a1,0(a0)
800002ec:	8082                	ret

800002ee <HW_get_32bit_reg>:
HW_get_32bit_reg():
800002ee:	4108                	lw	a0,0(a0)
800002f0:	8082                	ret

800002f2 <HW_set_32bit_reg_field>:
HW_set_32bit_reg_field():
800002f2:	8e36                	mv	t3,a3
800002f4:	00be1e33          	sll	t3,t3,a1
800002f8:	00ce7e33          	and	t3,t3,a2
800002fc:	00052303          	lw	t1,0(a0)
80000300:	83b2                	mv	t2,a2
80000302:	fff3c393          	not	t2,t2
80000306:	00737333          	and	t1,t1,t2
8000030a:	01c36333          	or	t1,t1,t3
8000030e:	00652023          	sw	t1,0(a0)
80000312:	8082                	ret

80000314 <HW_get_32bit_reg_field>:
HW_get_32bit_reg_field():
80000314:	4108                	lw	a0,0(a0)
80000316:	8d71                	and	a0,a0,a2
80000318:	00b55533          	srl	a0,a0,a1
8000031c:	8082                	ret

8000031e <HW_set_16bit_reg>:
HW_set_16bit_reg():
8000031e:	00b51023          	sh	a1,0(a0)
80000322:	8082                	ret

80000324 <HW_get_16bit_reg>:
HW_get_16bit_reg():
80000324:	00051503          	lh	a0,0(a0)
80000328:	8082                	ret

8000032a <HW_set_16bit_reg_field>:
HW_set_16bit_reg_field():
8000032a:	8e36                	mv	t3,a3
8000032c:	00be1e33          	sll	t3,t3,a1
80000330:	00ce7e33          	and	t3,t3,a2
80000334:	00051303          	lh	t1,0(a0)
80000338:	83b2                	mv	t2,a2
8000033a:	fff3c393          	not	t2,t2
8000033e:	00737333          	and	t1,t1,t2
80000342:	01c36333          	or	t1,t1,t3
80000346:	00651023          	sh	t1,0(a0)
8000034a:	8082                	ret

8000034c <HW_get_16bit_reg_field>:
HW_get_16bit_reg_field():
8000034c:	00051503          	lh	a0,0(a0)
80000350:	8d71                	and	a0,a0,a2
80000352:	00b55533          	srl	a0,a0,a1
80000356:	8082                	ret

80000358 <HW_set_8bit_reg>:
HW_set_8bit_reg():
80000358:	00b50023          	sb	a1,0(a0)
8000035c:	8082                	ret

8000035e <HW_get_8bit_reg>:
HW_get_8bit_reg():
8000035e:	00050503          	lb	a0,0(a0)
80000362:	8082                	ret

80000364 <HW_set_8bit_reg_field>:
HW_set_8bit_reg_field():
80000364:	8e36                	mv	t3,a3
80000366:	00be1e33          	sll	t3,t3,a1
8000036a:	00ce7e33          	and	t3,t3,a2
8000036e:	00050303          	lb	t1,0(a0)
80000372:	83b2                	mv	t2,a2
80000374:	fff3c393          	not	t2,t2
80000378:	00737333          	and	t1,t1,t2
8000037c:	01c36333          	or	t1,t1,t3
80000380:	00650023          	sb	t1,0(a0)
80000384:	8082                	ret

80000386 <HW_get_8bit_reg_field>:
HW_get_8bit_reg_field():
80000386:	00050503          	lb	a0,0(a0)
8000038a:	8d71                	and	a0,a0,a2
8000038c:	00b55533          	srl	a0,a0,a1
80000390:	8082                	ret

80000392 <UART_init>:
UART_init():
80000392:	c939                	beqz	a0,800003e8 <UART_init+0x56>
80000394:	479d                	li	a5,7
80000396:	04d7e963          	bltu	a5,a3,800003e8 <UART_init+0x56>
8000039a:	6789                	lui	a5,0x2
8000039c:	04f67663          	bgeu	a2,a5,800003e8 <UART_init+0x56>
800003a0:	233042ef          	jal	t0,80004dd2 <__riscv_save_4>
800003a4:	892e                	mv	s2,a1
800003a6:	8432                	mv	s0,a2
800003a8:	0ff67593          	andi	a1,a2,255
800003ac:	84aa                	mv	s1,a0
800003ae:	8415                	srai	s0,s0,0x5
800003b0:	00890513          	addi	a0,s2,8
800003b4:	89b6                	mv	s3,a3
800003b6:	7f847413          	andi	s0,s0,2040
800003ba:	3f79                	jal	80000358 <HW_set_8bit_reg>
800003bc:	00c90513          	addi	a0,s2,12
800003c0:	013465b3          	or	a1,s0,s3
800003c4:	3f51                	jal	80000358 <HW_set_8bit_reg>
800003c6:	01090513          	addi	a0,s2,16
800003ca:	0124a023          	sw	s2,0(s1)
800003ce:	3f41                	jal	8000035e <HW_get_8bit_reg>
800003d0:	8909                	andi	a0,a0,2
800003d2:	e509                	bnez	a0,800003dc <UART_init+0x4a>
800003d4:	00048223          	sb	zero,4(s1)
800003d8:	22f0406f          	j	80004e06 <__riscv_restore_4>
800003dc:	4088                	lw	a0,0(s1)
800003de:	0511                	addi	a0,a0,4
800003e0:	3fbd                	jal	8000035e <HW_get_8bit_reg>
800003e2:	4088                	lw	a0,0(s1)
800003e4:	0541                	addi	a0,a0,16
800003e6:	b7e5                	j	800003ce <UART_init+0x3c>
800003e8:	8082                	ret

800003ea <UART_send>:
UART_send():
800003ea:	c915                	beqz	a0,8000041e <UART_send+0x34>
800003ec:	c98d                	beqz	a1,8000041e <UART_send+0x34>
800003ee:	ca05                	beqz	a2,8000041e <UART_send+0x34>
800003f0:	1fd042ef          	jal	t0,80004dec <__riscv_save_0>
800003f4:	892a                	mv	s2,a0
800003f6:	842e                	mv	s0,a1
800003f8:	00c584b3          	add	s1,a1,a2
800003fc:	00941463          	bne	s0,s1,80000404 <UART_send+0x1a>
80000400:	2110406f          	j	80004e10 <__riscv_restore_0>
80000404:	00092503          	lw	a0,0(s2)
80000408:	0541                	addi	a0,a0,16
8000040a:	3f91                	jal	8000035e <HW_get_8bit_reg>
8000040c:	8905                	andi	a0,a0,1
8000040e:	d97d                	beqz	a0,80000404 <UART_send+0x1a>
80000410:	00044583          	lbu	a1,0(s0) # 40000000 <RAM_SIZE+0x3ffe0000>
80000414:	00092503          	lw	a0,0(s2)
80000418:	0405                	addi	s0,s0,1
8000041a:	3f3d                	jal	80000358 <HW_set_8bit_reg>
8000041c:	b7c5                	j	800003fc <UART_send+0x12>
8000041e:	8082                	ret

80000420 <UART_get_rx>:
UART_get_rx():
80000420:	1b3042ef          	jal	t0,80004dd2 <__riscv_save_4>
80000424:	4481                	li	s1,0
80000426:	c115                	beqz	a0,8000044a <UART_get_rx+0x2a>
80000428:	c18d                	beqz	a1,8000044a <UART_get_rx+0x2a>
8000042a:	c205                	beqz	a2,8000044a <UART_get_rx+0x2a>
8000042c:	8932                	mv	s2,a2
8000042e:	89ae                	mv	s3,a1
80000430:	842a                	mv	s0,a0
80000432:	4008                	lw	a0,0(s0)
80000434:	0541                	addi	a0,a0,16
80000436:	3725                	jal	8000035e <HW_get_8bit_reg>
80000438:	00444783          	lbu	a5,4(s0)
8000043c:	8fc9                	or	a5,a5,a0
8000043e:	00f40223          	sb	a5,4(s0)
80000442:	8909                	andi	a0,a0,2
80000444:	c119                	beqz	a0,8000044a <UART_get_rx+0x2a>
80000446:	01249563          	bne	s1,s2,80000450 <UART_get_rx+0x30>
8000044a:	8526                	mv	a0,s1
8000044c:	1bb0406f          	j	80004e06 <__riscv_restore_4>
80000450:	4008                	lw	a0,0(s0)
80000452:	0511                	addi	a0,a0,4
80000454:	3729                	jal	8000035e <HW_get_8bit_reg>
80000456:	009987b3          	add	a5,s3,s1
8000045a:	00a78023          	sb	a0,0(a5) # 2000 <HEAP_SIZE+0x1000>
8000045e:	0485                	addi	s1,s1,1
80000460:	bfc9                	j	80000432 <UART_get_rx+0x12>

80000462 <UART_polled_tx_string>:
UART_polled_tx_string():
80000462:	c515                	beqz	a0,8000048e <UART_polled_tx_string+0x2c>
80000464:	c58d                	beqz	a1,8000048e <UART_polled_tx_string+0x2c>
80000466:	187042ef          	jal	t0,80004dec <__riscv_save_0>
8000046a:	84aa                	mv	s1,a0
8000046c:	842e                	mv	s0,a1
8000046e:	00044783          	lbu	a5,0(s0)
80000472:	e399                	bnez	a5,80000478 <UART_polled_tx_string+0x16>
80000474:	19d0406f          	j	80004e10 <__riscv_restore_0>
80000478:	4088                	lw	a0,0(s1)
8000047a:	0541                	addi	a0,a0,16
8000047c:	35cd                	jal	8000035e <HW_get_8bit_reg>
8000047e:	8905                	andi	a0,a0,1
80000480:	dd65                	beqz	a0,80000478 <UART_polled_tx_string+0x16>
80000482:	00044583          	lbu	a1,0(s0)
80000486:	4088                	lw	a0,0(s1)
80000488:	0405                	addi	s0,s0,1
8000048a:	35f9                	jal	80000358 <HW_set_8bit_reg>
8000048c:	b7cd                	j	8000046e <UART_polled_tx_string+0xc>
8000048e:	8082                	ret

80000490 <execute_ss_command>:
execute_ss_command():
80000490:	135042ef          	jal	t0,80004dc4 <__riscv_save_10>
80000494:	8c2a                	mv	s8,a0
80000496:	bf81a503          	lw	a0,-1032(gp) # 800055b8 <g_css_pf_base_addr>
8000049a:	8b2e                	mv	s6,a1
8000049c:	8932                	mv	s2,a2
8000049e:	4589                	li	a1,2
800004a0:	4611                	li	a2,4
800004a2:	0531                	addi	a0,a0,12
800004a4:	8ab6                	mv	s5,a3
800004a6:	84ba                	mv	s1,a4
800004a8:	8a3e                	mv	s4,a5
800004aa:	8bc2                	mv	s7,a6
800004ac:	35a5                	jal	80000314 <HW_get_32bit_reg_field>
800004ae:	0c051b63          	bnez	a0,80000584 <execute_ss_command+0xf4>
800004b2:	bf818413          	addi	s0,gp,-1032 # 800055b8 <g_css_pf_base_addr>
800004b6:	4008                	lw	a0,0(s0)
800004b8:	4609                	li	a2,2
800004ba:	4585                	li	a1,1
800004bc:	0531                	addi	a0,a0,12
800004be:	3d99                	jal	80000314 <HW_get_32bit_reg_field>
800004c0:	89aa                	mv	s3,a0
800004c2:	4505                	li	a0,1
800004c4:	06099b63          	bnez	s3,8000053a <execute_ss_command+0xaa>
800004c8:	007a1593          	slli	a1,s4,0x7
800004cc:	07fc7c13          	andi	s8,s8,127
800004d0:	4008                	lw	a0,0(s0)
800004d2:	0185e5b3          	or	a1,a1,s8
800004d6:	05c2                	slli	a1,a1,0x10
800004d8:	81c1                	srli	a1,a1,0x10
800004da:	0511                	addi	a0,a0,4
800004dc:	3539                	jal	800002ea <HW_set_32bit_reg>
800004de:	00090b63          	beqz	s2,800004f4 <execute_ss_command+0x64>
800004e2:	4008                	lw	a0,0(s0)
800004e4:	00295593          	srli	a1,s2,0x2
800004e8:	0551                	addi	a0,a0,20
800004ea:	3501                	jal	800002ea <HW_set_32bit_reg>
800004ec:	4008                	lw	a0,0(s0)
800004ee:	85d2                	mv	a1,s4
800004f0:	0571                	addi	a0,a0,28
800004f2:	3be5                	jal	800002ea <HW_set_32bit_reg>
800004f4:	cc81                	beqz	s1,8000050c <execute_ss_command+0x7c>
800004f6:	4008                	lw	a0,0(s0)
800004f8:	0024d593          	srli	a1,s1,0x2
800004fc:	0561                	addi	a0,a0,24
800004fe:	33f5                	jal	800002ea <HW_set_32bit_reg>
80000500:	4008                	lw	a0,0(s0)
80000502:	014b85b3          	add	a1,s7,s4
80000506:	02050513          	addi	a0,a0,32
8000050a:	33c5                	jal	800002ea <HW_set_32bit_reg>
8000050c:	4008                	lw	a0,0(s0)
8000050e:	4685                	li	a3,1
80000510:	4605                	li	a2,1
80000512:	4581                	li	a1,0
80000514:	0531                	addi	a0,a0,12
80000516:	3bf1                	jal	800002f2 <HW_set_32bit_reg_field>
80000518:	02091363          	bnez	s2,8000053e <execute_ss_command+0xae>
8000051c:	e0a1                	bnez	s1,8000055c <execute_ss_command+0xcc>
8000051e:	4008                	lw	a0,0(s0)
80000520:	4605                	li	a2,1
80000522:	4581                	li	a1,0
80000524:	03050513          	addi	a0,a0,48
80000528:	33f5                	jal	80000314 <HW_get_32bit_reg_field>
8000052a:	4785                	li	a5,1
8000052c:	fef509e3          	beq	a0,a5,8000051e <execute_ss_command+0x8e>
80000530:	4008                	lw	a0,0(s0)
80000532:	0521                	addi	a0,a0,8
80000534:	3b6d                	jal	800002ee <HW_get_32bit_reg>
80000536:	0ff57513          	andi	a0,a0,255
8000053a:	0c30406f          	j	80004dfc <__riscv_restore_10>
8000053e:	00295913          	srli	s2,s2,0x2
80000542:	4a01                	li	s4,0
80000544:	4008                	lw	a0,0(s0)
80000546:	fd2a7be3          	bgeu	s4,s2,8000051c <execute_ss_command+0x8c>
8000054a:	002a1793          	slli	a5,s4,0x2
8000054e:	97da                	add	a5,a5,s6
80000550:	438c                	lw	a1,0(a5)
80000552:	02850513          	addi	a0,a0,40
80000556:	0a05                	addi	s4,s4,1
80000558:	3b49                	jal	800002ea <HW_set_32bit_reg>
8000055a:	b7ed                	j	80000544 <execute_ss_command+0xb4>
8000055c:	8089                	srli	s1,s1,0x2
8000055e:	fc99f0e3          	bgeu	s3,s1,8000051e <execute_ss_command+0x8e>
80000562:	4008                	lw	a0,0(s0)
80000564:	4609                	li	a2,2
80000566:	4585                	li	a1,1
80000568:	03050513          	addi	a0,a0,48
8000056c:	3365                	jal	80000314 <HW_get_32bit_reg_field>
8000056e:	d975                	beqz	a0,80000562 <execute_ss_command+0xd2>
80000570:	4008                	lw	a0,0(s0)
80000572:	02c50513          	addi	a0,a0,44
80000576:	3ba5                	jal	800002ee <HW_get_32bit_reg>
80000578:	00299793          	slli	a5,s3,0x2
8000057c:	97d6                	add	a5,a5,s5
8000057e:	c388                	sw	a0,0(a5)
80000580:	0985                	addi	s3,s3,1
80000582:	bff1                	j	8000055e <execute_ss_command+0xce>
80000584:	4509                	li	a0,2
80000586:	bf55                	j	8000053a <execute_ss_command+0xaa>

80000588 <SYS_init>:
SYS_init():
80000588:	bea1ac23          	sw	a0,-1032(gp) # 800055b8 <g_css_pf_base_addr>
8000058c:	8082                	ret

8000058e <SYS_get_serial_number>:
SYS_get_serial_number():
8000058e:	05f042ef          	jal	t0,80004dec <__riscv_save_0>
80000592:	87ae                	mv	a5,a1
80000594:	86aa                	mv	a3,a0
80000596:	4801                	li	a6,0
80000598:	4741                	li	a4,16
8000059a:	4601                	li	a2,0
8000059c:	4581                	li	a1,0
8000059e:	4501                	li	a0,0
800005a0:	3dc5                	jal	80000490 <execute_ss_command>
800005a2:	06f0406f          	j	80004e10 <__riscv_restore_0>

800005a6 <SYS_get_design_info>:
SYS_get_design_info():
800005a6:	047042ef          	jal	t0,80004dec <__riscv_save_0>
800005aa:	87ae                	mv	a5,a1
800005ac:	86aa                	mv	a3,a0
800005ae:	4801                	li	a6,0
800005b0:	02400713          	li	a4,36
800005b4:	4601                	li	a2,0
800005b6:	4581                	li	a1,0
800005b8:	4509                	li	a0,2
800005ba:	3dd9                	jal	80000490 <execute_ss_command>
800005bc:	0550406f          	j	80004e10 <__riscv_restore_0>

800005c0 <recover_from_rx_overflow.isra.0>:
recover_from_rx_overflow.isra.0():
800005c0:	02d042ef          	jal	t0,80004dec <__riscv_save_0>
800005c4:	842a                	mv	s0,a0
800005c6:	4108                	lw	a0,0(a0)
800005c8:	4681                	li	a3,0
800005ca:	4605                	li	a2,1
800005cc:	4581                	li	a1,0
800005ce:	3b59                	jal	80000364 <HW_set_8bit_reg_field>
800005d0:	4008                	lw	a0,0(s0)
800005d2:	458d                	li	a1,3
800005d4:	0571                	addi	a0,a0,28
800005d6:	3349                	jal	80000358 <HW_set_8bit_reg>
800005d8:	4008                	lw	a0,0(s0)
800005da:	0ff00593          	li	a1,255
800005de:	0511                	addi	a0,a0,4
800005e0:	3ba5                	jal	80000358 <HW_set_8bit_reg>
800005e2:	4008                	lw	a0,0(s0)
800005e4:	4685                	li	a3,1
800005e6:	4605                	li	a2,1
800005e8:	4581                	li	a1,0
800005ea:	3bad                	jal	80000364 <HW_set_8bit_reg_field>
800005ec:	0250406f          	j	80004e10 <__riscv_restore_0>

800005f0 <SPI_init>:
SPI_init():
800005f0:	c525                	beqz	a0,80000658 <SPI_init+0x68>
800005f2:	7fa042ef          	jal	t0,80004dec <__riscv_save_0>
800005f6:	84ae                	mv	s1,a1
800005f8:	cdb1                	beqz	a1,80000654 <SPI_init+0x64>
800005fa:	842a                	mv	s0,a0
800005fc:	8932                	mv	s2,a2
800005fe:	4581                	li	a1,0
80000600:	04800613          	li	a2,72
80000604:	0511                	addi	a0,a0,4
80000606:	163040ef          	jal	ra,80004f68 <memset>
8000060a:	fff90793          	addi	a5,s2,-1
8000060e:	07c2                	slli	a5,a5,0x10
80000610:	c004                	sw	s1,0(s0)
80000612:	83c1                	srli	a5,a5,0x10
80000614:	477d                	li	a4,31
80000616:	00f77363          	bgeu	a4,a5,8000061c <SPI_init+0x2c>
8000061a:	4905                	li	s2,1
8000061c:	4681                	li	a3,0
8000061e:	4605                	li	a2,1
80000620:	4581                	li	a1,0
80000622:	8526                	mv	a0,s1
80000624:	05241223          	sh	s2,68(s0)
80000628:	3b35                	jal	80000364 <HW_set_8bit_reg_field>
8000062a:	4008                	lw	a0,0(s0)
8000062c:	4581                	li	a1,0
8000062e:	02450513          	addi	a0,a0,36
80000632:	331d                	jal	80000358 <HW_set_8bit_reg>
80000634:	4008                	lw	a0,0(s0)
80000636:	458d                	li	a1,3
80000638:	0571                	addi	a0,a0,28
8000063a:	3b39                	jal	80000358 <HW_set_8bit_reg>
8000063c:	4008                	lw	a0,0(s0)
8000063e:	0ff00593          	li	a1,255
80000642:	0511                	addi	a0,a0,4
80000644:	3b11                	jal	80000358 <HW_set_8bit_reg>
80000646:	4008                	lw	a0,0(s0)
80000648:	4581                	li	a1,0
8000064a:	0561                	addi	a0,a0,24
8000064c:	3331                	jal	80000358 <HW_set_8bit_reg>
8000064e:	4008                	lw	a0,0(s0)
80000650:	458d                	li	a1,3
80000652:	3319                	jal	80000358 <HW_set_8bit_reg>
80000654:	7bc0406f          	j	80004e10 <__riscv_restore_0>
80000658:	8082                	ret

8000065a <SPI_configure_master_mode>:
SPI_configure_master_mode():
8000065a:	cd0d                	beqz	a0,80000694 <SPI_configure_master_mode+0x3a>
8000065c:	790042ef          	jal	t0,80004dec <__riscv_save_0>
80000660:	842a                	mv	s0,a0
80000662:	4108                	lw	a0,0(a0)
80000664:	4681                	li	a3,0
80000666:	4605                	li	a2,1
80000668:	4581                	li	a1,0
8000066a:	39ed                	jal	80000364 <HW_set_8bit_reg_field>
8000066c:	4008                	lw	a0,0(s0)
8000066e:	04042423          	sw	zero,72(s0)
80000672:	458d                	li	a1,3
80000674:	0571                	addi	a0,a0,28
80000676:	31cd                	jal	80000358 <HW_set_8bit_reg>
80000678:	4008                	lw	a0,0(s0)
8000067a:	0ff00593          	li	a1,255
8000067e:	0511                	addi	a0,a0,4
80000680:	39e1                	jal	80000358 <HW_set_8bit_reg>
80000682:	4008                	lw	a0,0(s0)
80000684:	4581                	li	a1,0
80000686:	0561                	addi	a0,a0,24
80000688:	39c1                	jal	80000358 <HW_set_8bit_reg>
8000068a:	4008                	lw	a0,0(s0)
8000068c:	458d                	li	a1,3
8000068e:	31e9                	jal	80000358 <HW_set_8bit_reg>
80000690:	7800406f          	j	80004e10 <__riscv_restore_0>
80000694:	8082                	ret

80000696 <SPI_set_slave_select>:
SPI_set_slave_select():
80000696:	c531                	beqz	a0,800006e2 <SPI_set_slave_select+0x4c>
80000698:	479d                	li	a5,7
8000069a:	04b7e463          	bltu	a5,a1,800006e2 <SPI_set_slave_select+0x4c>
8000069e:	74e042ef          	jal	t0,80004dec <__riscv_save_0>
800006a2:	842a                	mv	s0,a0
800006a4:	4108                	lw	a0,0(a0)
800006a6:	84ae                	mv	s1,a1
800006a8:	4609                	li	a2,2
800006aa:	4585                	li	a1,1
800006ac:	39e9                	jal	80000386 <HW_get_8bit_reg_field>
800006ae:	c905                	beqz	a0,800006de <SPI_set_slave_select+0x48>
800006b0:	4008                	lw	a0,0(s0)
800006b2:	4641                	li	a2,16
800006b4:	4591                	li	a1,4
800006b6:	02050513          	addi	a0,a0,32
800006ba:	31f1                	jal	80000386 <HW_get_8bit_reg_field>
800006bc:	4785                	li	a5,1
800006be:	00f51463          	bne	a0,a5,800006c6 <SPI_set_slave_select+0x30>
800006c2:	8522                	mv	a0,s0
800006c4:	3df5                	jal	800005c0 <recover_from_rx_overflow.isra.0>
800006c6:	4008                	lw	a0,0(s0)
800006c8:	02450513          	addi	a0,a0,36
800006cc:	3949                	jal	8000035e <HW_get_8bit_reg>
800006ce:	401c                	lw	a5,0(s0)
800006d0:	4585                	li	a1,1
800006d2:	009595b3          	sll	a1,a1,s1
800006d6:	8dc9                	or	a1,a1,a0
800006d8:	02478513          	addi	a0,a5,36
800006dc:	39b5                	jal	80000358 <HW_set_8bit_reg>
800006de:	7320406f          	j	80004e10 <__riscv_restore_0>
800006e2:	8082                	ret

800006e4 <SPI_clear_slave_select>:
SPI_clear_slave_select():
800006e4:	c921                	beqz	a0,80000734 <SPI_clear_slave_select+0x50>
800006e6:	479d                	li	a5,7
800006e8:	04b7e663          	bltu	a5,a1,80000734 <SPI_clear_slave_select+0x50>
800006ec:	700042ef          	jal	t0,80004dec <__riscv_save_0>
800006f0:	842a                	mv	s0,a0
800006f2:	4108                	lw	a0,0(a0)
800006f4:	84ae                	mv	s1,a1
800006f6:	4609                	li	a2,2
800006f8:	4585                	li	a1,1
800006fa:	3171                	jal	80000386 <HW_get_8bit_reg_field>
800006fc:	c915                	beqz	a0,80000730 <SPI_clear_slave_select+0x4c>
800006fe:	4008                	lw	a0,0(s0)
80000700:	4641                	li	a2,16
80000702:	4591                	li	a1,4
80000704:	02050513          	addi	a0,a0,32
80000708:	39bd                	jal	80000386 <HW_get_8bit_reg_field>
8000070a:	4785                	li	a5,1
8000070c:	00f51463          	bne	a0,a5,80000714 <SPI_clear_slave_select+0x30>
80000710:	8522                	mv	a0,s0
80000712:	357d                	jal	800005c0 <recover_from_rx_overflow.isra.0>
80000714:	4008                	lw	a0,0(s0)
80000716:	02450513          	addi	a0,a0,36
8000071a:	3191                	jal	8000035e <HW_get_8bit_reg>
8000071c:	4585                	li	a1,1
8000071e:	401c                	lw	a5,0(s0)
80000720:	009595b3          	sll	a1,a1,s1
80000724:	fff5c593          	not	a1,a1
80000728:	8de9                	and	a1,a1,a0
8000072a:	02478513          	addi	a0,a5,36
8000072e:	312d                	jal	80000358 <HW_set_8bit_reg>
80000730:	6e00406f          	j	80004e10 <__riscv_restore_0>
80000734:	8082                	ret

80000736 <SPI_transfer_frame>:
SPI_transfer_frame():
80000736:	6b6042ef          	jal	t0,80004dec <__riscv_save_0>
8000073a:	1141                	addi	sp,sp,-16
8000073c:	c602                	sw	zero,12(sp)
8000073e:	cd15                	beqz	a0,8000077a <SPI_transfer_frame+0x44>
80000740:	842a                	mv	s0,a0
80000742:	4108                	lw	a0,0(a0)
80000744:	84ae                	mv	s1,a1
80000746:	4609                	li	a2,2
80000748:	4585                	li	a1,1
8000074a:	3935                	jal	80000386 <HW_get_8bit_reg_field>
8000074c:	c51d                	beqz	a0,8000077a <SPI_transfer_frame+0x44>
8000074e:	4008                	lw	a0,0(s0)
80000750:	458d                	li	a1,3
80000752:	0571                	addi	a0,a0,28
80000754:	3111                	jal	80000358 <HW_set_8bit_reg>
80000756:	4008                	lw	a0,0(s0)
80000758:	85a6                	mv	a1,s1
8000075a:	02850513          	addi	a0,a0,40
8000075e:	3671                	jal	800002ea <HW_set_32bit_reg>
80000760:	4008                	lw	a0,0(s0)
80000762:	4609                	li	a2,2
80000764:	4585                	li	a1,1
80000766:	02050513          	addi	a0,a0,32
8000076a:	3931                	jal	80000386 <HW_get_8bit_reg_field>
8000076c:	4785                	li	a5,1
8000076e:	fef519e3          	bne	a0,a5,80000760 <SPI_transfer_frame+0x2a>
80000772:	4008                	lw	a0,0(s0)
80000774:	0521                	addi	a0,a0,8
80000776:	3ea5                	jal	800002ee <HW_get_32bit_reg>
80000778:	c62a                	sw	a0,12(sp)
8000077a:	4532                	lw	a0,12(sp)
8000077c:	0141                	addi	sp,sp,16
8000077e:	6920406f          	j	80004e10 <__riscv_restore_0>

80000782 <SPI_transfer_block>:
SPI_transfer_block():
80000782:	26050663          	beqz	a0,800009ee <SPI_transfer_block+0x26c>
80000786:	63e042ef          	jal	t0,80004dc4 <__riscv_save_10>
8000078a:	892a                	mv	s2,a0
8000078c:	4108                	lw	a0,0(a0)
8000078e:	8a32                	mv	s4,a2
80000790:	8bae                	mv	s7,a1
80000792:	4609                	li	a2,2
80000794:	4585                	li	a1,1
80000796:	8aba                	mv	s5,a4
80000798:	8b36                	mv	s6,a3
8000079a:	36f5                	jal	80000386 <HW_get_8bit_reg_field>
8000079c:	cd35                	beqz	a0,80000818 <SPI_transfer_block+0x96>
8000079e:	9ad2                	add	s5,s5,s4
800007a0:	060a8c63          	beqz	s5,80000818 <SPI_transfer_block+0x96>
800007a4:	00092503          	lw	a0,0(s2)
800007a8:	458d                	li	a1,3
800007aa:	1afd                	addi	s5,s5,-1
800007ac:	0571                	addi	a0,a0,28
800007ae:	366d                	jal	80000358 <HW_set_8bit_reg>
800007b0:	00092503          	lw	a0,0(s2)
800007b4:	4641                	li	a2,16
800007b6:	4591                	li	a1,4
800007b8:	02050513          	addi	a0,a0,32
800007bc:	36e9                	jal	80000386 <HW_get_8bit_reg_field>
800007be:	4785                	li	a5,1
800007c0:	00f51463          	bne	a0,a5,800007c8 <SPI_transfer_block+0x46>
800007c4:	854a                	mv	a0,s2
800007c6:	3bed                	jal	800005c0 <recover_from_rx_overflow.isra.0>
800007c8:	00092503          	lw	a0,0(s2)
800007cc:	4681                	li	a3,0
800007ce:	4605                	li	a2,1
800007d0:	4581                	li	a1,0
800007d2:	3e49                	jal	80000364 <HW_set_8bit_reg_field>
800007d4:	4401                	li	s0,0
800007d6:	00092503          	lw	a0,0(s2)
800007da:	05547e63          	bgeu	s0,s5,80000836 <SPI_transfer_block+0xb4>
800007de:	04495783          	lhu	a5,68(s2)
800007e2:	02f46d63          	bltu	s0,a5,8000081c <SPI_transfer_block+0x9a>
800007e6:	00092503          	lw	a0,0(s2)
800007ea:	4685                	li	a3,1
800007ec:	4605                	li	a2,1
800007ee:	4581                	li	a1,0
800007f0:	3e95                	jal	80000364 <HW_set_8bit_reg_field>
800007f2:	84a2                	mv	s1,s0
800007f4:	4981                	li	s3,0
800007f6:	07446463          	bltu	s0,s4,8000085e <SPI_transfer_block+0xdc>
800007fa:	0b49ed63          	bltu	s3,s4,800008b4 <SPI_transfer_block+0x132>
800007fe:	4a01                	li	s4,0
80000800:	11546163          	bltu	s0,s5,80000902 <SPI_transfer_block+0x180>
80000804:	15540d63          	beq	s0,s5,8000095e <SPI_transfer_block+0x1dc>
80000808:	414989b3          	sub	s3,s3,s4
8000080c:	013a0433          	add	s0,s4,s3
80000810:	0442                	slli	s0,s0,0x10
80000812:	8041                	srli	s0,s0,0x10
80000814:	1a8af563          	bgeu	s5,s0,800009be <SPI_transfer_block+0x23c>
80000818:	5e40406f          	j	80004dfc <__riscv_restore_10>
8000081c:	0531                	addi	a0,a0,12
8000081e:	4581                	li	a1,0
80000820:	01447663          	bgeu	s0,s4,8000082c <SPI_transfer_block+0xaa>
80000824:	008b87b3          	add	a5,s7,s0
80000828:	0007c583          	lbu	a1,0(a5)
8000082c:	0405                	addi	s0,s0,1
8000082e:	0442                	slli	s0,s0,0x10
80000830:	3c6d                	jal	800002ea <HW_set_32bit_reg>
80000832:	8041                	srli	s0,s0,0x10
80000834:	b74d                	j	800007d6 <SPI_transfer_block+0x54>
80000836:	fb5418e3          	bne	s0,s5,800007e6 <SPI_transfer_block+0x64>
8000083a:	04495783          	lhu	a5,68(s2)
8000083e:	faf474e3          	bgeu	s0,a5,800007e6 <SPI_transfer_block+0x64>
80000842:	02850513          	addi	a0,a0,40
80000846:	4581                	li	a1,0
80000848:	01447663          	bgeu	s0,s4,80000854 <SPI_transfer_block+0xd2>
8000084c:	008b87b3          	add	a5,s7,s0
80000850:	0007c583          	lbu	a1,0(a5)
80000854:	0405                	addi	s0,s0,1
80000856:	0442                	slli	s0,s0,0x10
80000858:	3c49                	jal	800002ea <HW_set_32bit_reg>
8000085a:	8041                	srli	s0,s0,0x10
8000085c:	b769                	j	800007e6 <SPI_transfer_block+0x64>
8000085e:	04495783          	lhu	a5,68(s2)
80000862:	02f4f363          	bgeu	s1,a5,80000888 <SPI_transfer_block+0x106>
80000866:	008b87b3          	add	a5,s7,s0
8000086a:	00092503          	lw	a0,0(s2)
8000086e:	0007c583          	lbu	a1,0(a5)
80000872:	03541f63          	bne	s0,s5,800008b0 <SPI_transfer_block+0x12e>
80000876:	02850513          	addi	a0,a0,40
8000087a:	0405                	addi	s0,s0,1
8000087c:	0485                	addi	s1,s1,1
8000087e:	0442                	slli	s0,s0,0x10
80000880:	04c2                	slli	s1,s1,0x10
80000882:	34a5                	jal	800002ea <HW_set_32bit_reg>
80000884:	8041                	srli	s0,s0,0x10
80000886:	80c1                	srli	s1,s1,0x10
80000888:	00092503          	lw	a0,0(s2)
8000088c:	4611                	li	a2,4
8000088e:	4589                	li	a1,2
80000890:	02050513          	addi	a0,a0,32
80000894:	3ccd                	jal	80000386 <HW_get_8bit_reg_field>
80000896:	f125                	bnez	a0,800007f6 <SPI_transfer_block+0x74>
80000898:	00092503          	lw	a0,0(s2)
8000089c:	0985                	addi	s3,s3,1
8000089e:	14fd                	addi	s1,s1,-1
800008a0:	0521                	addi	a0,a0,8
800008a2:	09c2                	slli	s3,s3,0x10
800008a4:	04c2                	slli	s1,s1,0x10
800008a6:	34a1                	jal	800002ee <HW_get_32bit_reg>
800008a8:	0109d993          	srli	s3,s3,0x10
800008ac:	80c1                	srli	s1,s1,0x10
800008ae:	b7a1                	j	800007f6 <SPI_transfer_block+0x74>
800008b0:	0531                	addi	a0,a0,12
800008b2:	b7e1                	j	8000087a <SPI_transfer_block+0xf8>
800008b4:	04495783          	lhu	a5,68(s2)
800008b8:	00f4ff63          	bgeu	s1,a5,800008d6 <SPI_transfer_block+0x154>
800008bc:	01547d63          	bgeu	s0,s5,800008d6 <SPI_transfer_block+0x154>
800008c0:	00092503          	lw	a0,0(s2)
800008c4:	0405                	addi	s0,s0,1
800008c6:	0485                	addi	s1,s1,1
800008c8:	4581                	li	a1,0
800008ca:	0531                	addi	a0,a0,12
800008cc:	0442                	slli	s0,s0,0x10
800008ce:	04c2                	slli	s1,s1,0x10
800008d0:	3c29                	jal	800002ea <HW_set_32bit_reg>
800008d2:	8041                	srli	s0,s0,0x10
800008d4:	80c1                	srli	s1,s1,0x10
800008d6:	00092503          	lw	a0,0(s2)
800008da:	4611                	li	a2,4
800008dc:	4589                	li	a1,2
800008de:	02050513          	addi	a0,a0,32
800008e2:	3455                	jal	80000386 <HW_get_8bit_reg_field>
800008e4:	f0051be3          	bnez	a0,800007fa <SPI_transfer_block+0x78>
800008e8:	00092503          	lw	a0,0(s2)
800008ec:	0985                	addi	s3,s3,1
800008ee:	14fd                	addi	s1,s1,-1
800008f0:	0521                	addi	a0,a0,8
800008f2:	09c2                	slli	s3,s3,0x10
800008f4:	04c2                	slli	s1,s1,0x10
800008f6:	9f9ff0ef          	jal	ra,800002ee <HW_get_32bit_reg>
800008fa:	0109d993          	srli	s3,s3,0x10
800008fe:	80c1                	srli	s1,s1,0x10
80000900:	bded                	j	800007fa <SPI_transfer_block+0x78>
80000902:	04495783          	lhu	a5,68(s2)
80000906:	00f4fe63          	bgeu	s1,a5,80000922 <SPI_transfer_block+0x1a0>
8000090a:	00092503          	lw	a0,0(s2)
8000090e:	0405                	addi	s0,s0,1
80000910:	0485                	addi	s1,s1,1
80000912:	4581                	li	a1,0
80000914:	0531                	addi	a0,a0,12
80000916:	0442                	slli	s0,s0,0x10
80000918:	04c2                	slli	s1,s1,0x10
8000091a:	9d1ff0ef          	jal	ra,800002ea <HW_set_32bit_reg>
8000091e:	8041                	srli	s0,s0,0x10
80000920:	80c1                	srli	s1,s1,0x10
80000922:	00092503          	lw	a0,0(s2)
80000926:	4611                	li	a2,4
80000928:	4589                	li	a1,2
8000092a:	02050513          	addi	a0,a0,32
8000092e:	3ca1                	jal	80000386 <HW_get_8bit_reg_field>
80000930:	ec0518e3          	bnez	a0,80000800 <SPI_transfer_block+0x7e>
80000934:	00092503          	lw	a0,0(s2)
80000938:	0985                	addi	s3,s3,1
8000093a:	14fd                	addi	s1,s1,-1
8000093c:	0521                	addi	a0,a0,8
8000093e:	9b1ff0ef          	jal	ra,800002ee <HW_get_32bit_reg>
80000942:	014b07b3          	add	a5,s6,s4
80000946:	0a05                	addi	s4,s4,1
80000948:	0a42                	slli	s4,s4,0x10
8000094a:	09c2                	slli	s3,s3,0x10
8000094c:	04c2                	slli	s1,s1,0x10
8000094e:	00a78023          	sb	a0,0(a5)
80000952:	010a5a13          	srli	s4,s4,0x10
80000956:	0109d993          	srli	s3,s3,0x10
8000095a:	80c1                	srli	s1,s1,0x10
8000095c:	b555                	j	80000800 <SPI_transfer_block+0x7e>
8000095e:	04495783          	lhu	a5,68(s2)
80000962:	00f4ff63          	bgeu	s1,a5,80000980 <SPI_transfer_block+0x1fe>
80000966:	00092503          	lw	a0,0(s2)
8000096a:	0405                	addi	s0,s0,1
8000096c:	0485                	addi	s1,s1,1
8000096e:	4581                	li	a1,0
80000970:	02850513          	addi	a0,a0,40
80000974:	0442                	slli	s0,s0,0x10
80000976:	04c2                	slli	s1,s1,0x10
80000978:	973ff0ef          	jal	ra,800002ea <HW_set_32bit_reg>
8000097c:	8041                	srli	s0,s0,0x10
8000097e:	80c1                	srli	s1,s1,0x10
80000980:	00092503          	lw	a0,0(s2)
80000984:	4611                	li	a2,4
80000986:	4589                	li	a1,2
80000988:	02050513          	addi	a0,a0,32
8000098c:	9fbff0ef          	jal	ra,80000386 <HW_get_8bit_reg_field>
80000990:	e6051ae3          	bnez	a0,80000804 <SPI_transfer_block+0x82>
80000994:	00092503          	lw	a0,0(s2)
80000998:	0985                	addi	s3,s3,1
8000099a:	14fd                	addi	s1,s1,-1
8000099c:	0521                	addi	a0,a0,8
8000099e:	951ff0ef          	jal	ra,800002ee <HW_get_32bit_reg>
800009a2:	014b07b3          	add	a5,s6,s4
800009a6:	0a05                	addi	s4,s4,1
800009a8:	0a42                	slli	s4,s4,0x10
800009aa:	09c2                	slli	s3,s3,0x10
800009ac:	04c2                	slli	s1,s1,0x10
800009ae:	00a78023          	sb	a0,0(a5)
800009b2:	010a5a13          	srli	s4,s4,0x10
800009b6:	0109d993          	srli	s3,s3,0x10
800009ba:	80c1                	srli	s1,s1,0x10
800009bc:	b5a1                	j	80000804 <SPI_transfer_block+0x82>
800009be:	00092503          	lw	a0,0(s2)
800009c2:	4611                	li	a2,4
800009c4:	4589                	li	a1,2
800009c6:	02050513          	addi	a0,a0,32
800009ca:	9bdff0ef          	jal	ra,80000386 <HW_get_8bit_reg_field>
800009ce:	e40513e3          	bnez	a0,80000814 <SPI_transfer_block+0x92>
800009d2:	00092503          	lw	a0,0(s2)
800009d6:	0521                	addi	a0,a0,8
800009d8:	917ff0ef          	jal	ra,800002ee <HW_get_32bit_reg>
800009dc:	014b07b3          	add	a5,s6,s4
800009e0:	0a05                	addi	s4,s4,1
800009e2:	0a42                	slli	s4,s4,0x10
800009e4:	00a78023          	sb	a0,0(a5)
800009e8:	010a5a13          	srli	s4,s4,0x10
800009ec:	b505                	j	8000080c <SPI_transfer_block+0x8a>
800009ee:	8082                	ret

800009f0 <PWM_init>:
PWM_init():
800009f0:	3fc042ef          	jal	t0,80004dec <__riscv_save_0>
800009f4:	842a                	mv	s0,a0
800009f6:	852e                	mv	a0,a1
800009f8:	1141                	addi	sp,sp,-16
800009fa:	c00c                	sw	a1,0(s0)
800009fc:	0521                	addi	a0,a0,8
800009fe:	4581                	li	a1,0
80000a00:	c436                	sw	a3,8(sp)
80000a02:	c632                	sw	a2,12(sp)
80000a04:	955ff0ef          	jal	ra,80000358 <HW_set_8bit_reg>
80000a08:	4008                	lw	a0,0(s0)
80000a0a:	4581                	li	a1,0
80000a0c:	0531                	addi	a0,a0,12
80000a0e:	94bff0ef          	jal	ra,80000358 <HW_set_8bit_reg>
80000a12:	4632                	lw	a2,12(sp)
80000a14:	4008                	lw	a0,0(s0)
80000a16:	85b2                	mv	a1,a2
80000a18:	8d3ff0ef          	jal	ra,800002ea <HW_set_32bit_reg>
80000a1c:	46a2                	lw	a3,8(sp)
80000a1e:	4008                	lw	a0,0(s0)
80000a20:	85b6                	mv	a1,a3
80000a22:	0511                	addi	a0,a0,4
80000a24:	8c7ff0ef          	jal	ra,800002ea <HW_set_32bit_reg>
80000a28:	4008                	lw	a0,0(s0)
80000a2a:	4581                	li	a1,0
80000a2c:	0541                	addi	a0,a0,16
80000a2e:	8bdff0ef          	jal	ra,800002ea <HW_set_32bit_reg>
80000a32:	4008                	lw	a0,0(s0)
80000a34:	4581                	li	a1,0
80000a36:	0561                	addi	a0,a0,24
80000a38:	8b3ff0ef          	jal	ra,800002ea <HW_set_32bit_reg>
80000a3c:	4008                	lw	a0,0(s0)
80000a3e:	4581                	li	a1,0
80000a40:	02050513          	addi	a0,a0,32
80000a44:	8a7ff0ef          	jal	ra,800002ea <HW_set_32bit_reg>
80000a48:	4008                	lw	a0,0(s0)
80000a4a:	4581                	li	a1,0
80000a4c:	02850513          	addi	a0,a0,40
80000a50:	89bff0ef          	jal	ra,800002ea <HW_set_32bit_reg>
80000a54:	4008                	lw	a0,0(s0)
80000a56:	4581                	li	a1,0
80000a58:	03050513          	addi	a0,a0,48
80000a5c:	88fff0ef          	jal	ra,800002ea <HW_set_32bit_reg>
80000a60:	4008                	lw	a0,0(s0)
80000a62:	4581                	li	a1,0
80000a64:	03850513          	addi	a0,a0,56
80000a68:	883ff0ef          	jal	ra,800002ea <HW_set_32bit_reg>
80000a6c:	4008                	lw	a0,0(s0)
80000a6e:	4581                	li	a1,0
80000a70:	04050513          	addi	a0,a0,64
80000a74:	877ff0ef          	jal	ra,800002ea <HW_set_32bit_reg>
80000a78:	4008                	lw	a0,0(s0)
80000a7a:	4581                	li	a1,0
80000a7c:	04850513          	addi	a0,a0,72
80000a80:	86bff0ef          	jal	ra,800002ea <HW_set_32bit_reg>
80000a84:	4008                	lw	a0,0(s0)
80000a86:	4581                	li	a1,0
80000a88:	05050513          	addi	a0,a0,80
80000a8c:	85fff0ef          	jal	ra,800002ea <HW_set_32bit_reg>
80000a90:	4008                	lw	a0,0(s0)
80000a92:	4581                	li	a1,0
80000a94:	05850513          	addi	a0,a0,88
80000a98:	853ff0ef          	jal	ra,800002ea <HW_set_32bit_reg>
80000a9c:	4008                	lw	a0,0(s0)
80000a9e:	4581                	li	a1,0
80000aa0:	06050513          	addi	a0,a0,96
80000aa4:	847ff0ef          	jal	ra,800002ea <HW_set_32bit_reg>
80000aa8:	4008                	lw	a0,0(s0)
80000aaa:	4581                	li	a1,0
80000aac:	06850513          	addi	a0,a0,104
80000ab0:	83bff0ef          	jal	ra,800002ea <HW_set_32bit_reg>
80000ab4:	4008                	lw	a0,0(s0)
80000ab6:	4581                	li	a1,0
80000ab8:	07050513          	addi	a0,a0,112
80000abc:	82fff0ef          	jal	ra,800002ea <HW_set_32bit_reg>
80000ac0:	4008                	lw	a0,0(s0)
80000ac2:	4581                	li	a1,0
80000ac4:	07850513          	addi	a0,a0,120
80000ac8:	823ff0ef          	jal	ra,800002ea <HW_set_32bit_reg>
80000acc:	4008                	lw	a0,0(s0)
80000ace:	4581                	li	a1,0
80000ad0:	08050513          	addi	a0,a0,128
80000ad4:	817ff0ef          	jal	ra,800002ea <HW_set_32bit_reg>
80000ad8:	4008                	lw	a0,0(s0)
80000ada:	4581                	li	a1,0
80000adc:	08850513          	addi	a0,a0,136
80000ae0:	80bff0ef          	jal	ra,800002ea <HW_set_32bit_reg>
80000ae4:	0141                	addi	sp,sp,16
80000ae6:	32a0406f          	j	80004e10 <__riscv_restore_0>

80000aea <PWM_enable>:
PWM_enable():
80000aea:	fff58713          	addi	a4,a1,-1
80000aee:	47bd                	li	a5,15
80000af0:	04e7e763          	bltu	a5,a4,80000b3e <PWM_enable+0x54>
80000af4:	2f8042ef          	jal	t0,80004dec <__riscv_save_0>
80000af8:	800057b7          	lui	a5,0x80005
80000afc:	01878793          	addi	a5,a5,24 # 80005018 <__stack_top+0xffffb068>
80000b00:	97ae                	add	a5,a5,a1
80000b02:	0007c403          	lbu	s0,0(a5)
80000b06:	47a1                	li	a5,8
80000b08:	84aa                	mv	s1,a0
80000b0a:	4108                	lw	a0,0(a0)
80000b0c:	00b7ef63          	bltu	a5,a1,80000b2a <PWM_enable+0x40>
80000b10:	0521                	addi	a0,a0,8
80000b12:	84dff0ef          	jal	ra,8000035e <HW_get_8bit_reg>
80000b16:	00a465b3          	or	a1,s0,a0
80000b1a:	4088                	lw	a0,0(s1)
80000b1c:	0ff5f593          	andi	a1,a1,255
80000b20:	0521                	addi	a0,a0,8
80000b22:	837ff0ef          	jal	ra,80000358 <HW_set_8bit_reg>
80000b26:	2ea0406f          	j	80004e10 <__riscv_restore_0>
80000b2a:	0531                	addi	a0,a0,12
80000b2c:	833ff0ef          	jal	ra,8000035e <HW_get_8bit_reg>
80000b30:	00a465b3          	or	a1,s0,a0
80000b34:	4088                	lw	a0,0(s1)
80000b36:	0ff5f593          	andi	a1,a1,255
80000b3a:	0531                	addi	a0,a0,12
80000b3c:	b7dd                	j	80000b22 <PWM_enable+0x38>
80000b3e:	8082                	ret

80000b40 <PWM_disable>:
PWM_disable():
80000b40:	fff58713          	addi	a4,a1,-1
80000b44:	47bd                	li	a5,15
80000b46:	04e7e963          	bltu	a5,a4,80000b98 <PWM_disable+0x58>
80000b4a:	2a2042ef          	jal	t0,80004dec <__riscv_save_0>
80000b4e:	800057b7          	lui	a5,0x80005
80000b52:	01878793          	addi	a5,a5,24 # 80005018 <__stack_top+0xffffb068>
80000b56:	97ae                	add	a5,a5,a1
80000b58:	0007c403          	lbu	s0,0(a5)
80000b5c:	47a1                	li	a5,8
80000b5e:	84aa                	mv	s1,a0
80000b60:	fff44413          	not	s0,s0
80000b64:	4108                	lw	a0,0(a0)
80000b66:	0ff47413          	andi	s0,s0,255
80000b6a:	00b7ee63          	bltu	a5,a1,80000b86 <PWM_disable+0x46>
80000b6e:	0521                	addi	a0,a0,8
80000b70:	feeff0ef          	jal	ra,8000035e <HW_get_8bit_reg>
80000b74:	409c                	lw	a5,0(s1)
80000b76:	008575b3          	and	a1,a0,s0
80000b7a:	00878513          	addi	a0,a5,8
80000b7e:	fdaff0ef          	jal	ra,80000358 <HW_set_8bit_reg>
80000b82:	28e0406f          	j	80004e10 <__riscv_restore_0>
80000b86:	0531                	addi	a0,a0,12
80000b88:	fd6ff0ef          	jal	ra,8000035e <HW_get_8bit_reg>
80000b8c:	409c                	lw	a5,0(s1)
80000b8e:	008575b3          	and	a1,a0,s0
80000b92:	00c78513          	addi	a0,a5,12
80000b96:	b7e5                	j	80000b7e <PWM_disable+0x3e>
80000b98:	8082                	ret

80000b9a <PWM_set_duty_cycle>:
PWM_set_duty_cycle():
80000b9a:	fff58693          	addi	a3,a1,-1
80000b9e:	473d                	li	a4,15
80000ba0:	04d76763          	bltu	a4,a3,80000bee <PWM_set_duty_cycle+0x54>
80000ba4:	22e042ef          	jal	t0,80004dd2 <__riscv_save_4>
80000ba8:	8932                	mv	s2,a2
80000baa:	e601                	bnez	a2,80000bb2 <PWM_set_duty_cycle+0x18>
80000bac:	3f51                	jal	80000b40 <PWM_disable>
80000bae:	2580406f          	j	80004e06 <__riscv_restore_4>
80000bb2:	80005737          	lui	a4,0x80005
80000bb6:	00259993          	slli	s3,a1,0x2
80000bba:	07070713          	addi	a4,a4,112 # 80005070 <__stack_top+0xffffb0c0>
80000bbe:	974e                	add	a4,a4,s3
80000bc0:	431c                	lw	a5,0(a4)
80000bc2:	842a                	mv	s0,a0
80000bc4:	4108                	lw	a0,0(a0)
80000bc6:	84ae                	mv	s1,a1
80000bc8:	4581                	li	a1,0
80000bca:	953e                	add	a0,a0,a5
80000bcc:	f1eff0ef          	jal	ra,800002ea <HW_set_32bit_reg>
80000bd0:	800057b7          	lui	a5,0x80005
80000bd4:	02c78793          	addi	a5,a5,44 # 8000502c <__stack_top+0xffffb07c>
80000bd8:	97ce                	add	a5,a5,s3
80000bda:	4008                	lw	a0,0(s0)
80000bdc:	439c                	lw	a5,0(a5)
80000bde:	85ca                	mv	a1,s2
80000be0:	953e                	add	a0,a0,a5
80000be2:	f08ff0ef          	jal	ra,800002ea <HW_set_32bit_reg>
80000be6:	85a6                	mv	a1,s1
80000be8:	8522                	mv	a0,s0
80000bea:	3701                	jal	80000aea <PWM_enable>
80000bec:	b7c9                	j	80000bae <PWM_set_duty_cycle+0x14>
80000bee:	8082                	ret

80000bf0 <GPIO_init>:
GPIO_init():
80000bf0:	1fc042ef          	jal	t0,80004dec <__riscv_save_0>
80000bf4:	842a                	mv	s0,a0
80000bf6:	c00c                	sw	a1,0(s0)
80000bf8:	84ae                	mv	s1,a1
80000bfa:	c150                	sw	a2,4(a0)
80000bfc:	08058913          	addi	s2,a1,128
80000c00:	8526                	mv	a0,s1
80000c02:	4581                	li	a1,0
80000c04:	0491                	addi	s1,s1,4
80000c06:	f52ff0ef          	jal	ra,80000358 <HW_set_8bit_reg>
80000c0a:	ff249be3          	bne	s1,s2,80000c00 <GPIO_init+0x10>
80000c0e:	405c                	lw	a5,4(s0)
80000c10:	4705                	li	a4,1
80000c12:	00e78e63          	beq	a5,a4,80000c2e <GPIO_init+0x3e>
80000c16:	cf85                	beqz	a5,80000c4e <GPIO_init+0x5e>
80000c18:	4709                	li	a4,2
80000c1a:	00e79863          	bne	a5,a4,80000c2a <GPIO_init+0x3a>
80000c1e:	4008                	lw	a0,0(s0)
80000c20:	55fd                	li	a1,-1
80000c22:	08050513          	addi	a0,a0,128
80000c26:	ec4ff0ef          	jal	ra,800002ea <HW_set_32bit_reg>
80000c2a:	1e60406f          	j	80004e10 <__riscv_restore_0>
80000c2e:	4008                	lw	a0,0(s0)
80000c30:	64c1                	lui	s1,0x10
80000c32:	fff48593          	addi	a1,s1,-1 # ffff <HEAP_SIZE+0xefff>
80000c36:	08050513          	addi	a0,a0,128
80000c3a:	ee4ff0ef          	jal	ra,8000031e <HW_set_16bit_reg>
80000c3e:	4008                	lw	a0,0(s0)
80000c40:	fff48593          	addi	a1,s1,-1
80000c44:	08450513          	addi	a0,a0,132
80000c48:	ed6ff0ef          	jal	ra,8000031e <HW_set_16bit_reg>
80000c4c:	bff9                	j	80000c2a <GPIO_init+0x3a>
80000c4e:	4008                	lw	a0,0(s0)
80000c50:	0ff00593          	li	a1,255
80000c54:	08050513          	addi	a0,a0,128
80000c58:	f00ff0ef          	jal	ra,80000358 <HW_set_8bit_reg>
80000c5c:	4008                	lw	a0,0(s0)
80000c5e:	0ff00593          	li	a1,255
80000c62:	08450513          	addi	a0,a0,132
80000c66:	ef2ff0ef          	jal	ra,80000358 <HW_set_8bit_reg>
80000c6a:	4008                	lw	a0,0(s0)
80000c6c:	0ff00593          	li	a1,255
80000c70:	08850513          	addi	a0,a0,136
80000c74:	ee4ff0ef          	jal	ra,80000358 <HW_set_8bit_reg>
80000c78:	4008                	lw	a0,0(s0)
80000c7a:	0ff00593          	li	a1,255
80000c7e:	08c50513          	addi	a0,a0,140
80000c82:	ed6ff0ef          	jal	ra,80000358 <HW_set_8bit_reg>
80000c86:	b755                	j	80000c2a <GPIO_init+0x3a>

80000c88 <GPIO_set_output>:
GPIO_set_output():
80000c88:	14a042ef          	jal	t0,80004dd2 <__riscv_save_4>
80000c8c:	4144                	lw	s1,4(a0)
80000c8e:	4405                	li	s0,1
80000c90:	8aaa                	mv	s5,a0
80000c92:	892e                	mv	s2,a1
80000c94:	89b2                	mv	s3,a2
80000c96:	02848d63          	beq	s1,s0,80000cd0 <GPIO_set_output+0x48>
80000c9a:	c8ad                	beqz	s1,80000d0c <GPIO_set_output+0x84>
80000c9c:	4789                	li	a5,2
80000c9e:	02f49763          	bne	s1,a5,80000ccc <GPIO_set_output+0x44>
80000ca2:	4108                	lw	a0,0(a0)
80000ca4:	01241433          	sll	s0,s0,s2
80000ca8:	0a050513          	addi	a0,a0,160
80000cac:	e42ff0ef          	jal	ra,800002ee <HW_get_32bit_reg>
80000cb0:	00a465b3          	or	a1,s0,a0
80000cb4:	00099663          	bnez	s3,80000cc0 <GPIO_set_output+0x38>
80000cb8:	fff44413          	not	s0,s0
80000cbc:	00a475b3          	and	a1,s0,a0
80000cc0:	000aa503          	lw	a0,0(s5)
80000cc4:	0a050513          	addi	a0,a0,160
80000cc8:	e22ff0ef          	jal	ra,800002ea <HW_set_32bit_reg>
80000ccc:	13a0406f          	j	80004e06 <__riscv_restore_4>
80000cd0:	411c                	lw	a5,0(a0)
80000cd2:	0045da13          	srli	s4,a1,0x4
80000cd6:	0a0a                	slli	s4,s4,0x2
80000cd8:	0a0a0a13          	addi	s4,s4,160
80000cdc:	00f97413          	andi	s0,s2,15
80000ce0:	9a3e                	add	s4,s4,a5
80000ce2:	008494b3          	sll	s1,s1,s0
80000ce6:	8552                	mv	a0,s4
80000ce8:	04c2                	slli	s1,s1,0x10
80000cea:	e3aff0ef          	jal	ra,80000324 <HW_get_16bit_reg>
80000cee:	84c1                	srai	s1,s1,0x10
80000cf0:	00099c63          	bnez	s3,80000d08 <GPIO_set_output+0x80>
80000cf4:	fff4c493          	not	s1,s1
80000cf8:	8ce9                	and	s1,s1,a0
80000cfa:	01049593          	slli	a1,s1,0x10
80000cfe:	81c1                	srli	a1,a1,0x10
80000d00:	8552                	mv	a0,s4
80000d02:	e1cff0ef          	jal	ra,8000031e <HW_set_16bit_reg>
80000d06:	b7d9                	j	80000ccc <GPIO_set_output+0x44>
80000d08:	8cc9                	or	s1,s1,a0
80000d0a:	bfc5                	j	80000cfa <GPIO_set_output+0x72>
80000d0c:	411c                	lw	a5,0(a0)
80000d0e:	0035d493          	srli	s1,a1,0x3
80000d12:	048a                	slli	s1,s1,0x2
80000d14:	0a048493          	addi	s1,s1,160
80000d18:	00797913          	andi	s2,s2,7
80000d1c:	94be                	add	s1,s1,a5
80000d1e:	01241433          	sll	s0,s0,s2
80000d22:	8526                	mv	a0,s1
80000d24:	0462                	slli	s0,s0,0x18
80000d26:	e38ff0ef          	jal	ra,8000035e <HW_get_8bit_reg>
80000d2a:	8461                	srai	s0,s0,0x18
80000d2c:	00099b63          	bnez	s3,80000d42 <GPIO_set_output+0xba>
80000d30:	fff44413          	not	s0,s0
80000d34:	8c69                	and	s0,s0,a0
80000d36:	0ff47593          	andi	a1,s0,255
80000d3a:	8526                	mv	a0,s1
80000d3c:	e1cff0ef          	jal	ra,80000358 <HW_set_8bit_reg>
80000d40:	b771                	j	80000ccc <GPIO_set_output+0x44>
80000d42:	8c49                	or	s0,s0,a0
80000d44:	bfcd                	j	80000d36 <GPIO_set_output+0xae>

80000d46 <ADC124S051_daisy_read>:
ADC124S051_daisy_read():
80000d46:	0a6042ef          	jal	t0,80004dec <__riscv_save_0>
80000d4a:	1141                	addi	sp,sp,-16
80000d4c:	058e                	slli	a1,a1,0x3
80000d4e:	00b10423          	sb	a1,8(sp)
80000d52:	0078                	addi	a4,sp,12
80000d54:	0030                	addi	a2,sp,8
80000d56:	4689                	li	a3,2
80000d58:	4589                	li	a1,2
80000d5a:	00011623          	sh	zero,12(sp)
80000d5e:	000104a3          	sb	zero,9(sp)
80000d62:	1bd000ef          	jal	ra,8000171e <SPI_daisy_rw_cycle>
80000d66:	00c14783          	lbu	a5,12(sp)
80000d6a:	00d14503          	lbu	a0,13(sp)
80000d6e:	07a2                	slli	a5,a5,0x8
80000d70:	8d5d                	or	a0,a0,a5
80000d72:	0141                	addi	sp,sp,16
80000d74:	09c0406f          	j	80004e10 <__riscv_restore_0>

80000d78 <ADC124S051_read>:
ADC124S051_read():
80000d78:	074042ef          	jal	t0,80004dec <__riscv_save_0>
80000d7c:	4789                	li	a5,2
80000d7e:	892a                	mv	s2,a0
80000d80:	84b2                	mv	s1,a2
80000d82:	4409                	li	s0,2
80000d84:	00f58563          	beq	a1,a5,80000d8e <ADC124S051_read+0x16>
80000d88:	15fd                	addi	a1,a1,-1
80000d8a:	0015b413          	seqz	s0,a1
80000d8e:	04ae                	slli	s1,s1,0xb
80000d90:	85a2                	mv	a1,s0
80000d92:	854a                	mv	a0,s2
80000d94:	04c2                	slli	s1,s1,0x10
80000d96:	901ff0ef          	jal	ra,80000696 <SPI_set_slave_select>
80000d9a:	80c1                	srli	s1,s1,0x10
80000d9c:	85a6                	mv	a1,s1
80000d9e:	854a                	mv	a0,s2
80000da0:	997ff0ef          	jal	ra,80000736 <SPI_transfer_frame>
80000da4:	85a6                	mv	a1,s1
80000da6:	854a                	mv	a0,s2
80000da8:	98fff0ef          	jal	ra,80000736 <SPI_transfer_frame>
80000dac:	84aa                	mv	s1,a0
80000dae:	85a2                	mv	a1,s0
80000db0:	854a                	mv	a0,s2
80000db2:	933ff0ef          	jal	ra,800006e4 <SPI_clear_slave_select>
80000db6:	01049513          	slli	a0,s1,0x10
80000dba:	8141                	srli	a0,a0,0x10
80000dbc:	0540406f          	j	80004e10 <__riscv_restore_0>

80000dc0 <hdc2080_open_reg>:
hdc2080_open_reg():
80000dc0:	02c042ef          	jal	t0,80004dec <__riscv_save_0>
80000dc4:	84ae                	mv	s1,a1
80000dc6:	00054583          	lbu	a1,0(a0)
80000dca:	842a                	mv	s0,a0
80000dcc:	4148                	lw	a0,4(a0)
80000dce:	0586                	slli	a1,a1,0x1
80000dd0:	0fe5f593          	andi	a1,a1,254
80000dd4:	2eb1                	jal	80001130 <I2C_start>
80000dd6:	e901                	bnez	a0,80000de6 <hdc2080_open_reg+0x26>
80000dd8:	4048                	lw	a0,4(s0)
80000dda:	85a6                	mv	a1,s1
80000ddc:	2ce1                	jal	800010b4 <I2C_write>
80000dde:	00a03533          	snez	a0,a0
80000de2:	02e0406f          	j	80004e10 <__riscv_restore_0>
80000de6:	4505                	li	a0,1
80000de8:	bfed                	j	80000de2 <hdc2080_open_reg+0x22>

80000dea <hdc2080_get_reg>:
hdc2080_get_reg():
80000dea:	002042ef          	jal	t0,80004dec <__riscv_save_0>
80000dee:	842a                	mv	s0,a0
80000df0:	84b2                	mv	s1,a2
80000df2:	37f9                	jal	80000dc0 <hdc2080_open_reg>
80000df4:	c509                	beqz	a0,80000dfe <hdc2080_get_reg+0x14>
80000df6:	4905                	li	s2,1
80000df8:	854a                	mv	a0,s2
80000dfa:	0160406f          	j	80004e10 <__riscv_restore_0>
80000dfe:	00044583          	lbu	a1,0(s0)
80000e02:	4048                	lw	a0,4(s0)
80000e04:	0586                	slli	a1,a1,0x1
80000e06:	0015e593          	ori	a1,a1,1
80000e0a:	0ff5f593          	andi	a1,a1,255
80000e0e:	260d                	jal	80001130 <I2C_start>
80000e10:	892a                	mv	s2,a0
80000e12:	f175                	bnez	a0,80000df6 <hdc2080_get_reg+0xc>
80000e14:	4048                	lw	a0,4(s0)
80000e16:	4585                	li	a1,1
80000e18:	22f1                	jal	80000fe4 <I2C_read>
80000e1a:	4681                	li	a3,0
80000e1c:	4701                	li	a4,0
80000e1e:	4885                	li	a7,1
80000e20:	481d                	li	a6,7
80000e22:	4621                	li	a2,8
80000e24:	00e897b3          	sll	a5,a7,a4
80000e28:	8fe9                	and	a5,a5,a0
80000e2a:	40e7d7b3          	sra	a5,a5,a4
80000e2e:	40e805b3          	sub	a1,a6,a4
80000e32:	00b797b3          	sll	a5,a5,a1
80000e36:	8edd                	or	a3,a3,a5
80000e38:	0705                	addi	a4,a4,1
80000e3a:	0ff6f693          	andi	a3,a3,255
80000e3e:	fec713e3          	bne	a4,a2,80000e24 <hdc2080_get_reg+0x3a>
80000e42:	00d48023          	sb	a3,0(s1)
80000e46:	4048                	lw	a0,4(s0)
80000e48:	2c0d                	jal	8000107a <I2C_stop>
80000e4a:	b77d                	j	80000df8 <hdc2080_get_reg+0xe>

80000e4c <hdc2080_set_reg>:
hdc2080_set_reg():
80000e4c:	7a1032ef          	jal	t0,80004dec <__riscv_save_0>
80000e50:	1141                	addi	sp,sp,-16
80000e52:	c632                	sw	a2,12(sp)
80000e54:	84aa                	mv	s1,a0
80000e56:	37ad                	jal	80000dc0 <hdc2080_open_reg>
80000e58:	4632                	lw	a2,12(sp)
80000e5a:	c511                	beqz	a0,80000e66 <hdc2080_set_reg+0x1a>
80000e5c:	4405                	li	s0,1
80000e5e:	8522                	mv	a0,s0
80000e60:	0141                	addi	sp,sp,16
80000e62:	7af0306f          	j	80004e10 <__riscv_restore_0>
80000e66:	40c8                	lw	a0,4(s1)
80000e68:	85b2                	mv	a1,a2
80000e6a:	24a9                	jal	800010b4 <I2C_write>
80000e6c:	842a                	mv	s0,a0
80000e6e:	f57d                	bnez	a0,80000e5c <hdc2080_set_reg+0x10>
80000e70:	40c8                	lw	a0,4(s1)
80000e72:	2421                	jal	8000107a <I2C_stop>
80000e74:	b7ed                	j	80000e5e <hdc2080_set_reg+0x12>

80000e76 <hdc2080_read_temp>:
hdc2080_read_temp():
80000e76:	777032ef          	jal	t0,80004dec <__riscv_save_0>
80000e7a:	1141                	addi	sp,sp,-16
80000e7c:	842e                	mv	s0,a1
80000e7e:	00f10613          	addi	a2,sp,15
80000e82:	4581                	li	a1,0
80000e84:	892a                	mv	s2,a0
80000e86:	3795                	jal	80000dea <hdc2080_get_reg>
80000e88:	c509                	beqz	a0,80000e92 <hdc2080_read_temp+0x1c>
80000e8a:	4505                	li	a0,1
80000e8c:	0141                	addi	sp,sp,16
80000e8e:	7830306f          	j	80004e10 <__riscv_restore_0>
80000e92:	00f10613          	addi	a2,sp,15
80000e96:	4585                	li	a1,1
80000e98:	854a                	mv	a0,s2
80000e9a:	00f14483          	lbu	s1,15(sp)
80000e9e:	37b1                	jal	80000dea <hdc2080_get_reg>
80000ea0:	f56d                	bnez	a0,80000e8a <hdc2080_read_temp+0x14>
80000ea2:	00f14783          	lbu	a5,15(sp)
80000ea6:	07a2                	slli	a5,a5,0x8
80000ea8:	8fc5                	or	a5,a5,s1
80000eaa:	00f41023          	sh	a5,0(s0)
80000eae:	bff9                	j	80000e8c <hdc2080_read_temp+0x16>

80000eb0 <hdc2080_read_humidity>:
hdc2080_read_humidity():
80000eb0:	73d032ef          	jal	t0,80004dec <__riscv_save_0>
80000eb4:	1141                	addi	sp,sp,-16
80000eb6:	842e                	mv	s0,a1
80000eb8:	00f10613          	addi	a2,sp,15
80000ebc:	4589                	li	a1,2
80000ebe:	892a                	mv	s2,a0
80000ec0:	372d                	jal	80000dea <hdc2080_get_reg>
80000ec2:	c509                	beqz	a0,80000ecc <hdc2080_read_humidity+0x1c>
80000ec4:	4505                	li	a0,1
80000ec6:	0141                	addi	sp,sp,16
80000ec8:	7490306f          	j	80004e10 <__riscv_restore_0>
80000ecc:	00f10613          	addi	a2,sp,15
80000ed0:	458d                	li	a1,3
80000ed2:	854a                	mv	a0,s2
80000ed4:	00f14483          	lbu	s1,15(sp)
80000ed8:	3f09                	jal	80000dea <hdc2080_get_reg>
80000eda:	f56d                	bnez	a0,80000ec4 <hdc2080_read_humidity+0x14>
80000edc:	00f14783          	lbu	a5,15(sp)
80000ee0:	07a2                	slli	a5,a5,0x8
80000ee2:	8fc5                	or	a5,a5,s1
80000ee4:	00f41023          	sh	a5,0(s0)
80000ee8:	bff9                	j	80000ec6 <hdc2080_read_humidity+0x16>

80000eea <hdc2080_trigger_measurement>:
hdc2080_trigger_measurement():
80000eea:	703032ef          	jal	t0,80004dec <__riscv_save_0>
80000eee:	1141                	addi	sp,sp,-16
80000ef0:	00f10613          	addi	a2,sp,15
80000ef4:	45bd                	li	a1,15
80000ef6:	842a                	mv	s0,a0
80000ef8:	3dcd                	jal	80000dea <hdc2080_get_reg>
80000efa:	e115                	bnez	a0,80000f1e <hdc2080_trigger_measurement+0x34>
80000efc:	00f14603          	lbu	a2,15(sp)
80000f00:	8522                	mv	a0,s0
80000f02:	45bd                	li	a1,15
80000f04:	00166613          	ori	a2,a2,1
80000f08:	00c107a3          	sb	a2,15(sp)
80000f0c:	3781                	jal	80000e4c <hdc2080_set_reg>
80000f0e:	842a                	mv	s0,a0
80000f10:	4509                	li	a0,2
80000f12:	190030ef          	jal	ra,800040a2 <delay_ms>
80000f16:	8522                	mv	a0,s0
80000f18:	0141                	addi	sp,sp,16
80000f1a:	6f70306f          	j	80004e10 <__riscv_restore_0>
80000f1e:	4405                	li	s0,1
80000f20:	bfdd                	j	80000f16 <hdc2080_trigger_measurement+0x2c>

80000f22 <hdc2080_reset>:
hdc2080_reset():
80000f22:	6cb032ef          	jal	t0,80004dec <__riscv_save_0>
80000f26:	1141                	addi	sp,sp,-16
80000f28:	00f10613          	addi	a2,sp,15
80000f2c:	45b9                	li	a1,14
80000f2e:	842a                	mv	s0,a0
80000f30:	3d6d                	jal	80000dea <hdc2080_get_reg>
80000f32:	ed09                	bnez	a0,80000f4c <hdc2080_reset+0x2a>
80000f34:	00f14603          	lbu	a2,15(sp)
80000f38:	45b9                	li	a1,14
80000f3a:	8522                	mv	a0,s0
80000f3c:	08066613          	ori	a2,a2,128
80000f40:	00c107a3          	sb	a2,15(sp)
80000f44:	3721                	jal	80000e4c <hdc2080_set_reg>
80000f46:	0141                	addi	sp,sp,16
80000f48:	6c90306f          	j	80004e10 <__riscv_restore_0>
80000f4c:	4505                	li	a0,1
80000f4e:	bfe5                	j	80000f46 <hdc2080_reset+0x24>

80000f50 <hdc2080_setup>:
hdc2080_setup():
80000f50:	69d032ef          	jal	t0,80004dec <__riscv_save_0>
80000f54:	1141                	addi	sp,sp,-16
80000f56:	c150                	sw	a2,4(a0)
80000f58:	00b50023          	sb	a1,0(a0)
80000f5c:	842a                	mv	s0,a0
80000f5e:	00010723          	sb	zero,14(sp)
80000f62:	000107a3          	sb	zero,15(sp)
80000f66:	3f75                	jal	80000f22 <hdc2080_reset>
80000f68:	4529                	li	a0,10
80000f6a:	138030ef          	jal	ra,800040a2 <delay_ms>
80000f6e:	00e10613          	addi	a2,sp,14
80000f72:	0fe00593          	li	a1,254
80000f76:	8522                	mv	a0,s0
80000f78:	3d8d                	jal	80000dea <hdc2080_get_reg>
80000f7a:	e11d                	bnez	a0,80000fa0 <hdc2080_setup+0x50>
80000f7c:	00f10613          	addi	a2,sp,15
80000f80:	0ff00593          	li	a1,255
80000f84:	8522                	mv	a0,s0
80000f86:	3595                	jal	80000dea <hdc2080_get_reg>
80000f88:	ed01                	bnez	a0,80000fa0 <hdc2080_setup+0x50>
80000f8a:	00e14703          	lbu	a4,14(sp)
80000f8e:	0d000793          	li	a5,208
80000f92:	00f71763          	bne	a4,a5,80000fa0 <hdc2080_setup+0x50>
80000f96:	00f14703          	lbu	a4,15(sp)
80000f9a:	479d                	li	a5,7
80000f9c:	00f70363          	beq	a4,a5,80000fa2 <hdc2080_setup+0x52>
80000fa0:	4505                	li	a0,1
80000fa2:	0141                	addi	sp,sp,16
80000fa4:	66d0306f          	j	80004e10 <__riscv_restore_0>

80000fa8 <I2C_setup>:
I2C_setup():
80000fa8:	645032ef          	jal	t0,80004dec <__riscv_save_0>
80000fac:	842a                	mv	s0,a0
80000fae:	852e                	mv	a0,a1
80000fb0:	c014                	sw	a3,0(s0)
80000fb2:	00e404a3          	sb	a4,9(s0)
80000fb6:	85b2                	mv	a1,a2
80000fb8:	c048                	sw	a0,4(s0)
80000fba:	00c40423          	sb	a2,8(s0)
80000fbe:	4605                	li	a2,1
80000fc0:	29b5                	jal	8000143c <MCP_pinWrite>
80000fc2:	00844583          	lbu	a1,8(s0)
80000fc6:	4048                	lw	a0,4(s0)
80000fc8:	4601                	li	a2,0
80000fca:	26fd                	jal	800013b8 <MCP_pinMode>
80000fcc:	00944583          	lbu	a1,9(s0)
80000fd0:	4008                	lw	a0,0(s0)
80000fd2:	4605                	li	a2,1
80000fd4:	21a5                	jal	8000143c <MCP_pinWrite>
80000fd6:	00944583          	lbu	a1,9(s0)
80000fda:	4008                	lw	a0,0(s0)
80000fdc:	4601                	li	a2,0
80000fde:	2ee9                	jal	800013b8 <MCP_pinMode>
80000fe0:	6310306f          	j	80004e10 <__riscv_restore_0>

80000fe4 <I2C_read>:
I2C_read():
80000fe4:	5ef032ef          	jal	t0,80004dd2 <__riscv_save_4>
80000fe8:	842a                	mv	s0,a0
80000fea:	89ae                	mv	s3,a1
80000fec:	00854583          	lbu	a1,8(a0)
80000ff0:	4148                	lw	a0,4(a0)
80000ff2:	4605                	li	a2,1
80000ff4:	4901                	li	s2,0
80000ff6:	2199                	jal	8000143c <MCP_pinWrite>
80000ff8:	00844583          	lbu	a1,8(s0)
80000ffc:	4048                	lw	a0,4(s0)
80000ffe:	4605                	li	a2,1
80001000:	4481                	li	s1,0
80001002:	2e5d                	jal	800013b8 <MCP_pinMode>
80001004:	4a21                	li	s4,8
80001006:	4511                	li	a0,4
80001008:	0b0030ef          	jal	ra,800040b8 <delayUs>
8000100c:	00944583          	lbu	a1,9(s0)
80001010:	4008                	lw	a0,0(s0)
80001012:	4605                	li	a2,1
80001014:	2125                	jal	8000143c <MCP_pinWrite>
80001016:	00844583          	lbu	a1,8(s0)
8000101a:	4048                	lw	a0,4(s0)
8000101c:	2b29                	jal	80001536 <MCP_pinRead>
8000101e:	c519                	beqz	a0,8000102c <I2C_read+0x48>
80001020:	4785                	li	a5,1
80001022:	012797b3          	sll	a5,a5,s2
80001026:	8cdd                	or	s1,s1,a5
80001028:	0ff4f493          	andi	s1,s1,255
8000102c:	00944583          	lbu	a1,9(s0)
80001030:	4008                	lw	a0,0(s0)
80001032:	4601                	li	a2,0
80001034:	0905                	addi	s2,s2,1
80001036:	2119                	jal	8000143c <MCP_pinWrite>
80001038:	fd4917e3          	bne	s2,s4,80001006 <I2C_read+0x22>
8000103c:	00844583          	lbu	a1,8(s0)
80001040:	4048                	lw	a0,4(s0)
80001042:	4601                	li	a2,0
80001044:	2e95                	jal	800013b8 <MCP_pinMode>
80001046:	00844583          	lbu	a1,8(s0)
8000104a:	4048                	lw	a0,4(s0)
8000104c:	864e                	mv	a2,s3
8000104e:	26fd                	jal	8000143c <MCP_pinWrite>
80001050:	00944583          	lbu	a1,9(s0)
80001054:	4008                	lw	a0,0(s0)
80001056:	4605                	li	a2,1
80001058:	26d5                	jal	8000143c <MCP_pinWrite>
8000105a:	4511                	li	a0,4
8000105c:	05c030ef          	jal	ra,800040b8 <delayUs>
80001060:	00944583          	lbu	a1,9(s0)
80001064:	4008                	lw	a0,0(s0)
80001066:	4601                	li	a2,0
80001068:	2ed1                	jal	8000143c <MCP_pinWrite>
8000106a:	4048                	lw	a0,4(s0)
8000106c:	00844583          	lbu	a1,8(s0)
80001070:	4601                	li	a2,0
80001072:	26e9                	jal	8000143c <MCP_pinWrite>
80001074:	8526                	mv	a0,s1
80001076:	5910306f          	j	80004e06 <__riscv_restore_4>

8000107a <I2C_stop>:
I2C_stop():
8000107a:	573032ef          	jal	t0,80004dec <__riscv_save_0>
8000107e:	842a                	mv	s0,a0
80001080:	00854583          	lbu	a1,8(a0)
80001084:	4148                	lw	a0,4(a0)
80001086:	4601                	li	a2,0
80001088:	2e55                	jal	8000143c <MCP_pinWrite>
8000108a:	4511                	li	a0,4
8000108c:	02c030ef          	jal	ra,800040b8 <delayUs>
80001090:	00944583          	lbu	a1,9(s0)
80001094:	4008                	lw	a0,0(s0)
80001096:	4605                	li	a2,1
80001098:	2655                	jal	8000143c <MCP_pinWrite>
8000109a:	4511                	li	a0,4
8000109c:	01c030ef          	jal	ra,800040b8 <delayUs>
800010a0:	00844583          	lbu	a1,8(s0)
800010a4:	4048                	lw	a0,4(s0)
800010a6:	4605                	li	a2,1
800010a8:	2e51                	jal	8000143c <MCP_pinWrite>
800010aa:	4511                	li	a0,4
800010ac:	00c030ef          	jal	ra,800040b8 <delayUs>
800010b0:	5610306f          	j	80004e10 <__riscv_restore_0>

800010b4 <I2C_write>:
I2C_write():
800010b4:	51f032ef          	jal	t0,80004dd2 <__riscv_save_4>
800010b8:	842a                	mv	s0,a0
800010ba:	89ae                	mv	s3,a1
800010bc:	44a1                	li	s1,8
800010be:	08000913          	li	s2,128
800010c2:	00844583          	lbu	a1,8(s0)
800010c6:	4048                	lw	a0,4(s0)
800010c8:	0129f633          	and	a2,s3,s2
800010cc:	14fd                	addi	s1,s1,-1
800010ce:	26bd                	jal	8000143c <MCP_pinWrite>
800010d0:	00944583          	lbu	a1,9(s0)
800010d4:	4008                	lw	a0,0(s0)
800010d6:	4605                	li	a2,1
800010d8:	00195913          	srli	s2,s2,0x1
800010dc:	2685                	jal	8000143c <MCP_pinWrite>
800010de:	4511                	li	a0,4
800010e0:	7d9020ef          	jal	ra,800040b8 <delayUs>
800010e4:	00944583          	lbu	a1,9(s0)
800010e8:	4008                	lw	a0,0(s0)
800010ea:	4601                	li	a2,0
800010ec:	2e81                	jal	8000143c <MCP_pinWrite>
800010ee:	f8f1                	bnez	s1,800010c2 <I2C_write+0xe>
800010f0:	00844583          	lbu	a1,8(s0)
800010f4:	4048                	lw	a0,4(s0)
800010f6:	4605                	li	a2,1
800010f8:	24c1                	jal	800013b8 <MCP_pinMode>
800010fa:	00944583          	lbu	a1,9(s0)
800010fe:	4008                	lw	a0,0(s0)
80001100:	4605                	li	a2,1
80001102:	2e2d                	jal	8000143c <MCP_pinWrite>
80001104:	00844583          	lbu	a1,8(s0)
80001108:	4048                	lw	a0,4(s0)
8000110a:	2135                	jal	80001536 <MCP_pinRead>
8000110c:	00944583          	lbu	a1,9(s0)
80001110:	4008                	lw	a0,0(s0)
80001112:	4601                	li	a2,0
80001114:	2625                	jal	8000143c <MCP_pinWrite>
80001116:	00844583          	lbu	a1,8(s0)
8000111a:	4048                	lw	a0,4(s0)
8000111c:	4601                	li	a2,0
8000111e:	2c69                	jal	800013b8 <MCP_pinMode>
80001120:	4048                	lw	a0,4(s0)
80001122:	00844583          	lbu	a1,8(s0)
80001126:	4601                	li	a2,0
80001128:	2e11                	jal	8000143c <MCP_pinWrite>
8000112a:	4501                	li	a0,0
8000112c:	4db0306f          	j	80004e06 <__riscv_restore_4>

80001130 <I2C_start>:
I2C_start():
80001130:	4bd032ef          	jal	t0,80004dec <__riscv_save_0>
80001134:	842a                	mv	s0,a0
80001136:	84ae                	mv	s1,a1
80001138:	00954583          	lbu	a1,9(a0)
8000113c:	4108                	lw	a0,0(a0)
8000113e:	4605                	li	a2,1
80001140:	2cf5                	jal	8000143c <MCP_pinWrite>
80001142:	00844583          	lbu	a1,8(s0)
80001146:	4048                	lw	a0,4(s0)
80001148:	4605                	li	a2,1
8000114a:	2ccd                	jal	8000143c <MCP_pinWrite>
8000114c:	4511                	li	a0,4
8000114e:	76b020ef          	jal	ra,800040b8 <delayUs>
80001152:	00844583          	lbu	a1,8(s0)
80001156:	4048                	lw	a0,4(s0)
80001158:	4601                	li	a2,0
8000115a:	24cd                	jal	8000143c <MCP_pinWrite>
8000115c:	4511                	li	a0,4
8000115e:	75b020ef          	jal	ra,800040b8 <delayUs>
80001162:	00944583          	lbu	a1,9(s0)
80001166:	4008                	lw	a0,0(s0)
80001168:	4601                	li	a2,0
8000116a:	2cc9                	jal	8000143c <MCP_pinWrite>
8000116c:	85a6                	mv	a1,s1
8000116e:	8522                	mv	a0,s0
80001170:	3791                	jal	800010b4 <I2C_write>
80001172:	49f0306f          	j	80004e10 <__riscv_restore_0>

80001176 <LTC2634_setup>:
LTC2634_setup():
80001176:	45d032ef          	jal	t0,80004dd2 <__riscv_save_4>
8000117a:	842a                	mv	s0,a0
8000117c:	852e                	mv	a0,a1
8000117e:	00e406a3          	sb	a4,13(s0)
80001182:	01040723          	sb	a6,14(s0)
80001186:	c054                	sw	a3,4(s0)
80001188:	c41c                	sw	a5,8(s0)
8000118a:	85b2                	mv	a1,a2
8000118c:	00c40623          	sb	a2,12(s0)
80001190:	c008                	sw	a0,0(s0)
80001192:	4605                	li	a2,1
80001194:	2465                	jal	8000143c <MCP_pinWrite>
80001196:	00c44583          	lbu	a1,12(s0)
8000119a:	4008                	lw	a0,0(s0)
8000119c:	4601                	li	a2,0
8000119e:	44dd                	li	s1,23
800011a0:	2c21                	jal	800013b8 <MCP_pinMode>
800011a2:	00d44583          	lbu	a1,13(s0)
800011a6:	4048                	lw	a0,4(s0)
800011a8:	4601                	li	a2,0
800011aa:	4a05                	li	s4,1
800011ac:	2c41                	jal	8000143c <MCP_pinWrite>
800011ae:	00d44583          	lbu	a1,13(s0)
800011b2:	4048                	lw	a0,4(s0)
800011b4:	4601                	li	a2,0
800011b6:	007f09b7          	lui	s3,0x7f0
800011ba:	2afd                	jal	800013b8 <MCP_pinMode>
800011bc:	00e44583          	lbu	a1,14(s0)
800011c0:	4408                	lw	a0,8(s0)
800011c2:	4601                	li	a2,0
800011c4:	597d                	li	s2,-1
800011c6:	2c9d                	jal	8000143c <MCP_pinWrite>
800011c8:	00e44583          	lbu	a1,14(s0)
800011cc:	4408                	lw	a0,8(s0)
800011ce:	4601                	li	a2,0
800011d0:	22e5                	jal	800013b8 <MCP_pinMode>
800011d2:	00d44583          	lbu	a1,13(s0)
800011d6:	4048                	lw	a0,4(s0)
800011d8:	4601                	li	a2,0
800011da:	248d                	jal	8000143c <MCP_pinWrite>
800011dc:	00c44583          	lbu	a1,12(s0)
800011e0:	4008                	lw	a0,0(s0)
800011e2:	4601                	li	a2,0
800011e4:	2ca1                	jal	8000143c <MCP_pinWrite>
800011e6:	4509                	li	a0,2
800011e8:	6d1020ef          	jal	ra,800040b8 <delayUs>
800011ec:	00e44583          	lbu	a1,14(s0)
800011f0:	009a1633          	sll	a2,s4,s1
800011f4:	4408                	lw	a0,8(s0)
800011f6:	01367633          	and	a2,a2,s3
800011fa:	00c03633          	snez	a2,a2
800011fe:	2c3d                	jal	8000143c <MCP_pinWrite>
80001200:	4509                	li	a0,2
80001202:	6b7020ef          	jal	ra,800040b8 <delayUs>
80001206:	00d44583          	lbu	a1,13(s0)
8000120a:	4048                	lw	a0,4(s0)
8000120c:	4605                	li	a2,1
8000120e:	14fd                	addi	s1,s1,-1
80001210:	2435                	jal	8000143c <MCP_pinWrite>
80001212:	4509                	li	a0,2
80001214:	6a5020ef          	jal	ra,800040b8 <delayUs>
80001218:	00d44583          	lbu	a1,13(s0)
8000121c:	4048                	lw	a0,4(s0)
8000121e:	4601                	li	a2,0
80001220:	2c31                	jal	8000143c <MCP_pinWrite>
80001222:	4509                	li	a0,2
80001224:	695020ef          	jal	ra,800040b8 <delayUs>
80001228:	fd2492e3          	bne	s1,s2,800011ec <LTC2634_setup+0x76>
8000122c:	00c44583          	lbu	a1,12(s0)
80001230:	4008                	lw	a0,0(s0)
80001232:	4605                	li	a2,1
80001234:	2421                	jal	8000143c <MCP_pinWrite>
80001236:	4509                	li	a0,2
80001238:	681020ef          	jal	ra,800040b8 <delayUs>
8000123c:	3cb0306f          	j	80004e06 <__riscv_restore_4>

80001240 <LTC2634_write>:
LTC2634_write():
80001240:	393032ef          	jal	t0,80004dd2 <__riscv_save_4>
80001244:	000f04b7          	lui	s1,0xf0
80001248:	05c2                	slli	a1,a1,0x10
8000124a:	8de5                	and	a1,a1,s1
8000124c:	061a                	slli	a2,a2,0x6
8000124e:	8dd1                	or	a1,a1,a2
80001250:	003004b7          	lui	s1,0x300
80001254:	842a                	mv	s0,a0
80001256:	8ccd                	or	s1,s1,a1
80001258:	00d54583          	lbu	a1,13(a0)
8000125c:	4148                	lw	a0,4(a0)
8000125e:	4601                	li	a2,0
80001260:	495d                	li	s2,23
80001262:	2ae9                	jal	8000143c <MCP_pinWrite>
80001264:	00c44583          	lbu	a1,12(s0)
80001268:	4008                	lw	a0,0(s0)
8000126a:	4601                	li	a2,0
8000126c:	4a05                	li	s4,1
8000126e:	22f9                	jal	8000143c <MCP_pinWrite>
80001270:	4509                	li	a0,2
80001272:	647020ef          	jal	ra,800040b8 <delayUs>
80001276:	59fd                	li	s3,-1
80001278:	00e44583          	lbu	a1,14(s0)
8000127c:	012a1633          	sll	a2,s4,s2
80001280:	4408                	lw	a0,8(s0)
80001282:	8e65                	and	a2,a2,s1
80001284:	00c03633          	snez	a2,a2
80001288:	2a55                	jal	8000143c <MCP_pinWrite>
8000128a:	4509                	li	a0,2
8000128c:	62d020ef          	jal	ra,800040b8 <delayUs>
80001290:	00d44583          	lbu	a1,13(s0)
80001294:	4048                	lw	a0,4(s0)
80001296:	4605                	li	a2,1
80001298:	197d                	addi	s2,s2,-1
8000129a:	224d                	jal	8000143c <MCP_pinWrite>
8000129c:	4509                	li	a0,2
8000129e:	61b020ef          	jal	ra,800040b8 <delayUs>
800012a2:	00d44583          	lbu	a1,13(s0)
800012a6:	4048                	lw	a0,4(s0)
800012a8:	4601                	li	a2,0
800012aa:	2a49                	jal	8000143c <MCP_pinWrite>
800012ac:	4509                	li	a0,2
800012ae:	60b020ef          	jal	ra,800040b8 <delayUs>
800012b2:	fd3913e3          	bne	s2,s3,80001278 <LTC2634_write+0x38>
800012b6:	00c44583          	lbu	a1,12(s0)
800012ba:	4008                	lw	a0,0(s0)
800012bc:	4605                	li	a2,1
800012be:	2abd                	jal	8000143c <MCP_pinWrite>
800012c0:	4509                	li	a0,2
800012c2:	5f7020ef          	jal	ra,800040b8 <delayUs>
800012c6:	3410306f          	j	80004e06 <__riscv_restore_4>

800012ca <MCP_byteWrite>:
MCP_byteWrite():
800012ca:	323032ef          	jal	t0,80004dec <__riscv_save_0>
800012ce:	00054783          	lbu	a5,0(a0)
800012d2:	1141                	addi	sp,sp,-16
800012d4:	00b106a3          	sb	a1,13(sp)
800012d8:	01454583          	lbu	a1,20(a0)
800012dc:	01850493          	addi	s1,a0,24
800012e0:	0786                	slli	a5,a5,0x1
800012e2:	0407e793          	ori	a5,a5,64
800012e6:	842a                	mv	s0,a0
800012e8:	8526                	mv	a0,s1
800012ea:	00f10623          	sb	a5,12(sp)
800012ee:	00c10723          	sb	a2,14(sp)
800012f2:	ba4ff0ef          	jal	ra,80000696 <SPI_set_slave_select>
800012f6:	4701                	li	a4,0
800012f8:	4681                	li	a3,0
800012fa:	460d                	li	a2,3
800012fc:	006c                	addi	a1,sp,12
800012fe:	8526                	mv	a0,s1
80001300:	c82ff0ef          	jal	ra,80000782 <SPI_transfer_block>
80001304:	01444583          	lbu	a1,20(s0)
80001308:	8526                	mv	a0,s1
8000130a:	bdaff0ef          	jal	ra,800006e4 <SPI_clear_slave_select>
8000130e:	0141                	addi	sp,sp,16
80001310:	3010306f          	j	80004e10 <__riscv_restore_0>

80001314 <MCP_setup>:
MCP_setup():
80001314:	2d9032ef          	jal	t0,80004dec <__riscv_save_0>
80001318:	842a                	mv	s0,a0
8000131a:	1141                	addi	sp,sp,-16
8000131c:	84b2                	mv	s1,a2
8000131e:	0561                	addi	a0,a0,24
80001320:	04c00613          	li	a2,76
80001324:	c636                	sw	a3,12(sp)
80001326:	c43a                	sw	a4,8(sp)
80001328:	38b030ef          	jal	ra,80004eb2 <memcpy>
8000132c:	46b2                	lw	a3,12(sp)
8000132e:	4722                	lw	a4,8(sp)
80001330:	67c1                	lui	a5,0x10
80001332:	17fd                	addi	a5,a5,-1
80001334:	00940a23          	sb	s1,20(s0)
80001338:	00d40023          	sb	a3,0(s0)
8000133c:	c05c                	sw	a5,4(s0)
8000133e:	00042823          	sw	zero,16(s0)
80001342:	00042423          	sw	zero,8(s0)
80001346:	00042623          	sw	zero,12(s0)
8000134a:	06e40223          	sb	a4,100(s0)
8000134e:	45a9                	li	a1,10
80001350:	c311                	beqz	a4,80001354 <MCP_setup+0x40>
80001352:	4595                	li	a1,5
80001354:	4621                	li	a2,8
80001356:	8522                	mv	a0,s0
80001358:	3f8d                	jal	800012ca <MCP_byteWrite>
8000135a:	0141                	addi	sp,sp,16
8000135c:	2b50306f          	j	80004e10 <__riscv_restore_0>

80001360 <MCP_wordWrite>:
MCP_wordWrite():
80001360:	28d032ef          	jal	t0,80004dec <__riscv_save_0>
80001364:	06454783          	lbu	a5,100(a0)
80001368:	1141                	addi	sp,sp,-16
8000136a:	c799                	beqz	a5,80001378 <MCP_wordWrite+0x18>
8000136c:	0ff67613          	andi	a2,a2,255
80001370:	3fa9                	jal	800012ca <MCP_byteWrite>
80001372:	0141                	addi	sp,sp,16
80001374:	29d0306f          	j	80004e10 <__riscv_restore_0>
80001378:	00054783          	lbu	a5,0(a0)
8000137c:	00b106a3          	sb	a1,13(sp)
80001380:	01454583          	lbu	a1,20(a0)
80001384:	01850493          	addi	s1,a0,24
80001388:	0786                	slli	a5,a5,0x1
8000138a:	0407e793          	ori	a5,a5,64
8000138e:	842a                	mv	s0,a0
80001390:	8526                	mv	a0,s1
80001392:	00f10623          	sb	a5,12(sp)
80001396:	00c11723          	sh	a2,14(sp)
8000139a:	afcff0ef          	jal	ra,80000696 <SPI_set_slave_select>
8000139e:	006c                	addi	a1,sp,12
800013a0:	8526                	mv	a0,s1
800013a2:	4701                	li	a4,0
800013a4:	4681                	li	a3,0
800013a6:	4611                	li	a2,4
800013a8:	bdaff0ef          	jal	ra,80000782 <SPI_transfer_block>
800013ac:	01444583          	lbu	a1,20(s0)
800013b0:	8526                	mv	a0,s1
800013b2:	b32ff0ef          	jal	ra,800006e4 <SPI_clear_slave_select>
800013b6:	bf75                	j	80001372 <MCP_wordWrite+0x12>

800013b8 <MCP_pinMode>:
MCP_pinMode():
800013b8:	06454683          	lbu	a3,100(a0)
800013bc:	0015b713          	seqz	a4,a1
800013c0:	47c1                	li	a5,16
800013c2:	c291                	beqz	a3,800013c6 <MCP_pinMode+0xe>
800013c4:	47a1                	li	a5,8
800013c6:	02b7c863          	blt	a5,a1,800013f6 <MCP_pinMode+0x3e>
800013ca:	e715                	bnez	a4,800013f6 <MCP_pinMode+0x3e>
800013cc:	221032ef          	jal	t0,80004dec <__riscv_save_0>
800013d0:	15fd                	addi	a1,a1,-1
800013d2:	4705                	li	a4,1
800013d4:	415c                	lw	a5,4(a0)
800013d6:	00b715b3          	sll	a1,a4,a1
800013da:	00e61963          	bne	a2,a4,800013ec <MCP_pinMode+0x34>
800013de:	00f5e633          	or	a2,a1,a5
800013e2:	c150                	sw	a2,4(a0)
800013e4:	4581                	li	a1,0
800013e6:	3fad                	jal	80001360 <MCP_wordWrite>
800013e8:	2290306f          	j	80004e10 <__riscv_restore_0>
800013ec:	fff5c593          	not	a1,a1
800013f0:	00f5f633          	and	a2,a1,a5
800013f4:	b7fd                	j	800013e2 <MCP_pinMode+0x2a>
800013f6:	8082                	ret

800013f8 <MCP_pullupMode>:
MCP_pullupMode():
800013f8:	06454703          	lbu	a4,100(a0)
800013fc:	0015b693          	seqz	a3,a1
80001400:	47c1                	li	a5,16
80001402:	c311                	beqz	a4,80001406 <MCP_pullupMode+0xe>
80001404:	47a1                	li	a5,8
80001406:	02b7ca63          	blt	a5,a1,8000143a <MCP_pullupMode+0x42>
8000140a:	ea85                	bnez	a3,8000143a <MCP_pullupMode+0x42>
8000140c:	1e1032ef          	jal	t0,80004dec <__riscv_save_0>
80001410:	15fd                	addi	a1,a1,-1
80001412:	4685                	li	a3,1
80001414:	451c                	lw	a5,8(a0)
80001416:	00b695b3          	sll	a1,a3,a1
8000141a:	00d61b63          	bne	a2,a3,80001430 <MCP_pullupMode+0x38>
8000141e:	00f5e633          	or	a2,a1,a5
80001422:	c510                	sw	a2,8(a0)
80001424:	4599                	li	a1,6
80001426:	e311                	bnez	a4,8000142a <MCP_pullupMode+0x32>
80001428:	45b1                	li	a1,12
8000142a:	3f1d                	jal	80001360 <MCP_wordWrite>
8000142c:	1e50306f          	j	80004e10 <__riscv_restore_0>
80001430:	fff5c593          	not	a1,a1
80001434:	00f5f633          	and	a2,a1,a5
80001438:	b7ed                	j	80001422 <MCP_pullupMode+0x2a>
8000143a:	8082                	ret

8000143c <MCP_pinWrite>:
MCP_pinWrite():
8000143c:	06454683          	lbu	a3,100(a0)
80001440:	0015b713          	seqz	a4,a1
80001444:	47c1                	li	a5,16
80001446:	c291                	beqz	a3,8000144a <MCP_pinWrite+0xe>
80001448:	47a1                	li	a5,8
8000144a:	02b7c963          	blt	a5,a1,8000147c <MCP_pinWrite+0x40>
8000144e:	e71d                	bnez	a4,8000147c <MCP_pinWrite+0x40>
80001450:	19d032ef          	jal	t0,80004dec <__riscv_save_0>
80001454:	fff58713          	addi	a4,a1,-1
80001458:	4585                	li	a1,1
8000145a:	491c                	lw	a5,16(a0)
8000145c:	00e595b3          	sll	a1,a1,a4
80001460:	ca11                	beqz	a2,80001474 <MCP_pinWrite+0x38>
80001462:	00f5e633          	or	a2,a1,a5
80001466:	c910                	sw	a2,16(a0)
80001468:	45a5                	li	a1,9
8000146a:	e291                	bnez	a3,8000146e <MCP_pinWrite+0x32>
8000146c:	45c9                	li	a1,18
8000146e:	3dcd                	jal	80001360 <MCP_wordWrite>
80001470:	1a10306f          	j	80004e10 <__riscv_restore_0>
80001474:	fff5c613          	not	a2,a1
80001478:	8e7d                	and	a2,a2,a5
8000147a:	b7f5                	j	80001466 <MCP_pinWrite+0x2a>
8000147c:	8082                	ret

8000147e <MCP_byteRead>:
MCP_byteRead():
8000147e:	16f032ef          	jal	t0,80004dec <__riscv_save_0>
80001482:	00054783          	lbu	a5,0(a0)
80001486:	1141                	addi	sp,sp,-16
80001488:	00b106a3          	sb	a1,13(sp)
8000148c:	01454583          	lbu	a1,20(a0)
80001490:	01850493          	addi	s1,a0,24
80001494:	0786                	slli	a5,a5,0x1
80001496:	0417e793          	ori	a5,a5,65
8000149a:	842a                	mv	s0,a0
8000149c:	8526                	mv	a0,s1
8000149e:	00f10623          	sb	a5,12(sp)
800014a2:	000105a3          	sb	zero,11(sp)
800014a6:	9f0ff0ef          	jal	ra,80000696 <SPI_set_slave_select>
800014aa:	00b10693          	addi	a3,sp,11
800014ae:	4705                	li	a4,1
800014b0:	4609                	li	a2,2
800014b2:	006c                	addi	a1,sp,12
800014b4:	8526                	mv	a0,s1
800014b6:	accff0ef          	jal	ra,80000782 <SPI_transfer_block>
800014ba:	01444583          	lbu	a1,20(s0)
800014be:	8526                	mv	a0,s1
800014c0:	a24ff0ef          	jal	ra,800006e4 <SPI_clear_slave_select>
800014c4:	00b14503          	lbu	a0,11(sp)
800014c8:	0141                	addi	sp,sp,16
800014ca:	1470306f          	j	80004e10 <__riscv_restore_0>

800014ce <MCP_wordRead>:
MCP_wordRead():
800014ce:	11f032ef          	jal	t0,80004dec <__riscv_save_0>
800014d2:	06454783          	lbu	a5,100(a0)
800014d6:	1141                	addi	sp,sp,-16
800014d8:	c789                	beqz	a5,800014e2 <MCP_wordRead+0x14>
800014da:	3755                	jal	8000147e <MCP_byteRead>
800014dc:	0141                	addi	sp,sp,16
800014de:	1330306f          	j	80004e10 <__riscv_restore_0>
800014e2:	00054783          	lbu	a5,0(a0)
800014e6:	00b104a3          	sb	a1,9(sp)
800014ea:	01454583          	lbu	a1,20(a0)
800014ee:	01850493          	addi	s1,a0,24
800014f2:	0786                	slli	a5,a5,0x1
800014f4:	0417e793          	ori	a5,a5,65
800014f8:	842a                	mv	s0,a0
800014fa:	8526                	mv	a0,s1
800014fc:	00f10423          	sb	a5,8(sp)
80001500:	996ff0ef          	jal	ra,80000696 <SPI_set_slave_select>
80001504:	4709                	li	a4,2
80001506:	0074                	addi	a3,sp,12
80001508:	4609                	li	a2,2
8000150a:	002c                	addi	a1,sp,8
8000150c:	8526                	mv	a0,s1
8000150e:	a74ff0ef          	jal	ra,80000782 <SPI_transfer_block>
80001512:	01444583          	lbu	a1,20(s0)
80001516:	8526                	mv	a0,s1
80001518:	9ccff0ef          	jal	ra,800006e4 <SPI_clear_slave_select>
8000151c:	00c15503          	lhu	a0,12(sp)
80001520:	bf75                	j	800014dc <MCP_wordRead+0xe>

80001522 <MCP_pinReadAll>:
MCP_pinReadAll():
80001522:	0cb032ef          	jal	t0,80004dec <__riscv_save_0>
80001526:	06454783          	lbu	a5,100(a0)
8000152a:	45c9                	li	a1,18
8000152c:	c391                	beqz	a5,80001530 <MCP_pinReadAll+0xe>
8000152e:	45a5                	li	a1,9
80001530:	3f79                	jal	800014ce <MCP_wordRead>
80001532:	0df0306f          	j	80004e10 <__riscv_restore_0>

80001536 <MCP_pinRead>:
MCP_pinRead():
80001536:	06454683          	lbu	a3,100(a0)
8000153a:	0015b713          	seqz	a4,a1
8000153e:	47c1                	li	a5,16
80001540:	c291                	beqz	a3,80001544 <MCP_pinRead+0xe>
80001542:	47a1                	li	a5,8
80001544:	02b7c063          	blt	a5,a1,80001564 <MCP_pinRead+0x2e>
80001548:	ef11                	bnez	a4,80001564 <MCP_pinRead+0x2e>
8000154a:	0a3032ef          	jal	t0,80004dec <__riscv_save_0>
8000154e:	842e                	mv	s0,a1
80001550:	3fc9                	jal	80001522 <MCP_pinReadAll>
80001552:	147d                	addi	s0,s0,-1
80001554:	4585                	li	a1,1
80001556:	008595b3          	sll	a1,a1,s0
8000155a:	8d6d                	and	a0,a0,a1
8000155c:	00a03533          	snez	a0,a0
80001560:	0b10306f          	j	80004e10 <__riscv_restore_0>
80001564:	4501                	li	a0,0
80001566:	8082                	ret

80001568 <SPI_daisy_setup>:
SPI_daisy_setup():
80001568:	085032ef          	jal	t0,80004dec <__riscv_save_0>
8000156c:	842a                	mv	s0,a0
8000156e:	c41c                	sw	a5,8(s0)
80001570:	01014783          	lbu	a5,16(sp)
80001574:	852e                	mv	a0,a1
80001576:	c008                	sw	a0,0(s0)
80001578:	85b2                	mv	a1,a2
8000157a:	00f409a3          	sb	a5,19(s0)
8000157e:	00c40823          	sb	a2,16(s0)
80001582:	c054                	sw	a3,4(s0)
80001584:	00e408a3          	sb	a4,17(s0)
80001588:	01040923          	sb	a6,18(s0)
8000158c:	01142623          	sw	a7,12(s0)
80001590:	4605                	li	a2,1
80001592:	356d                	jal	8000143c <MCP_pinWrite>
80001594:	4008                	lw	a0,0(s0)
80001596:	01044583          	lbu	a1,16(s0)
8000159a:	4601                	li	a2,0
8000159c:	e1dff0ef          	jal	ra,800013b8 <MCP_pinMode>
800015a0:	4008                	lw	a0,0(s0)
800015a2:	06454783          	lbu	a5,100(a0)
800015a6:	c791                	beqz	a5,800015b2 <SPI_daisy_setup+0x4a>
800015a8:	01044583          	lbu	a1,16(s0)
800015ac:	4605                	li	a2,1
800015ae:	e4bff0ef          	jal	ra,800013f8 <MCP_pullupMode>
800015b2:	01144583          	lbu	a1,17(s0)
800015b6:	4048                	lw	a0,4(s0)
800015b8:	4601                	li	a2,0
800015ba:	e83ff0ef          	jal	ra,8000143c <MCP_pinWrite>
800015be:	4048                	lw	a0,4(s0)
800015c0:	01144583          	lbu	a1,17(s0)
800015c4:	4601                	li	a2,0
800015c6:	df3ff0ef          	jal	ra,800013b8 <MCP_pinMode>
800015ca:	4048                	lw	a0,4(s0)
800015cc:	06454783          	lbu	a5,100(a0)
800015d0:	c791                	beqz	a5,800015dc <SPI_daisy_setup+0x74>
800015d2:	01144583          	lbu	a1,17(s0)
800015d6:	4605                	li	a2,1
800015d8:	e21ff0ef          	jal	ra,800013f8 <MCP_pullupMode>
800015dc:	01244583          	lbu	a1,18(s0)
800015e0:	4408                	lw	a0,8(s0)
800015e2:	4601                	li	a2,0
800015e4:	e59ff0ef          	jal	ra,8000143c <MCP_pinWrite>
800015e8:	4408                	lw	a0,8(s0)
800015ea:	01244583          	lbu	a1,18(s0)
800015ee:	4605                	li	a2,1
800015f0:	dc9ff0ef          	jal	ra,800013b8 <MCP_pinMode>
800015f4:	4408                	lw	a0,8(s0)
800015f6:	06454783          	lbu	a5,100(a0)
800015fa:	c791                	beqz	a5,80001606 <SPI_daisy_setup+0x9e>
800015fc:	01244583          	lbu	a1,18(s0)
80001600:	4605                	li	a2,1
80001602:	df7ff0ef          	jal	ra,800013f8 <MCP_pullupMode>
80001606:	01344583          	lbu	a1,19(s0)
8000160a:	4448                	lw	a0,12(s0)
8000160c:	4605                	li	a2,1
8000160e:	e2fff0ef          	jal	ra,8000143c <MCP_pinWrite>
80001612:	4448                	lw	a0,12(s0)
80001614:	01344583          	lbu	a1,19(s0)
80001618:	4601                	li	a2,0
8000161a:	d9fff0ef          	jal	ra,800013b8 <MCP_pinMode>
8000161e:	4448                	lw	a0,12(s0)
80001620:	06454783          	lbu	a5,100(a0)
80001624:	c791                	beqz	a5,80001630 <SPI_daisy_setup+0xc8>
80001626:	01344583          	lbu	a1,19(s0)
8000162a:	4605                	li	a2,1
8000162c:	dcdff0ef          	jal	ra,800013f8 <MCP_pullupMode>
80001630:	7e00306f          	j	80004e10 <__riscv_restore_0>

80001634 <SPI_daisy_read>:
SPI_daisy_read():
80001634:	79e032ef          	jal	t0,80004dd2 <__riscv_save_4>
80001638:	84aa                	mv	s1,a0
8000163a:	4781                	li	a5,0
8000163c:	0ff7f713          	andi	a4,a5,255
80001640:	00b76a63          	bltu	a4,a1,80001654 <SPI_daisy_read+0x20>
80001644:	8432                	mv	s0,a2
80001646:	00b60933          	add	s2,a2,a1
8000164a:	5a7d                	li	s4,-1
8000164c:	00891a63          	bne	s2,s0,80001660 <SPI_daisy_read+0x2c>
80001650:	7b60306f          	j	80004e06 <__riscv_restore_4>
80001654:	00f60733          	add	a4,a2,a5
80001658:	00070023          	sb	zero,0(a4)
8000165c:	0785                	addi	a5,a5,1
8000165e:	bff9                	j	8000163c <SPI_daisy_read+0x8>
80001660:	499d                	li	s3,7
80001662:	0104c583          	lbu	a1,16(s1) # 300010 <RAM_SIZE+0x2e0010>
80001666:	4088                	lw	a0,0(s1)
80001668:	4601                	li	a2,0
8000166a:	dd3ff0ef          	jal	ra,8000143c <MCP_pinWrite>
8000166e:	3e800513          	li	a0,1000
80001672:	211020ef          	jal	ra,80004082 <hwdelay>
80001676:	0104c583          	lbu	a1,16(s1)
8000167a:	4088                	lw	a0,0(s1)
8000167c:	4605                	li	a2,1
8000167e:	dbfff0ef          	jal	ra,8000143c <MCP_pinWrite>
80001682:	0124c583          	lbu	a1,18(s1)
80001686:	4488                	lw	a0,8(s1)
80001688:	eafff0ef          	jal	ra,80001536 <MCP_pinRead>
8000168c:	c909                	beqz	a0,8000169e <SPI_daisy_read+0x6a>
8000168e:	00044703          	lbu	a4,0(s0)
80001692:	4785                	li	a5,1
80001694:	013797b3          	sll	a5,a5,s3
80001698:	8fd9                	or	a5,a5,a4
8000169a:	00f40023          	sb	a5,0(s0)
8000169e:	3e800513          	li	a0,1000
800016a2:	19fd                	addi	s3,s3,-1
800016a4:	1df020ef          	jal	ra,80004082 <hwdelay>
800016a8:	fb499de3          	bne	s3,s4,80001662 <SPI_daisy_read+0x2e>
800016ac:	0405                	addi	s0,s0,1
800016ae:	bf79                	j	8000164c <SPI_daisy_read+0x18>

800016b0 <SPI_daisy_write>:
SPI_daisy_write():
800016b0:	722032ef          	jal	t0,80004dd2 <__riscv_save_4>
800016b4:	842a                	mv	s0,a0
800016b6:	84b2                	mv	s1,a2
800016b8:	00c58a33          	add	s4,a1,a2
800016bc:	009a1a63          	bne	s4,s1,800016d0 <SPI_daisy_write+0x20>
800016c0:	01144583          	lbu	a1,17(s0)
800016c4:	4048                	lw	a0,4(s0)
800016c6:	4601                	li	a2,0
800016c8:	d75ff0ef          	jal	ra,8000143c <MCP_pinWrite>
800016cc:	73a0306f          	j	80004e06 <__riscv_restore_4>
800016d0:	4921                	li	s2,8
800016d2:	08000993          	li	s3,128
800016d6:	01044583          	lbu	a1,16(s0)
800016da:	4008                	lw	a0,0(s0)
800016dc:	4601                	li	a2,0
800016de:	197d                	addi	s2,s2,-1
800016e0:	d5dff0ef          	jal	ra,8000143c <MCP_pinWrite>
800016e4:	0004c603          	lbu	a2,0(s1)
800016e8:	01144583          	lbu	a1,17(s0)
800016ec:	4048                	lw	a0,4(s0)
800016ee:	00c9f633          	and	a2,s3,a2
800016f2:	0019d993          	srli	s3,s3,0x1
800016f6:	d47ff0ef          	jal	ra,8000143c <MCP_pinWrite>
800016fa:	3e800513          	li	a0,1000
800016fe:	185020ef          	jal	ra,80004082 <hwdelay>
80001702:	01044583          	lbu	a1,16(s0)
80001706:	4008                	lw	a0,0(s0)
80001708:	4605                	li	a2,1
8000170a:	d33ff0ef          	jal	ra,8000143c <MCP_pinWrite>
8000170e:	3e800513          	li	a0,1000
80001712:	171020ef          	jal	ra,80004082 <hwdelay>
80001716:	fc0910e3          	bnez	s2,800016d6 <SPI_daisy_write+0x26>
8000171a:	0485                	addi	s1,s1,1
8000171c:	b745                	j	800016bc <SPI_daisy_write+0xc>

8000171e <SPI_daisy_rw_cycle>:
SPI_daisy_rw_cycle():
8000171e:	6ce032ef          	jal	t0,80004dec <__riscv_save_0>
80001722:	842a                	mv	s0,a0
80001724:	84ae                	mv	s1,a1
80001726:	01354583          	lbu	a1,19(a0)
8000172a:	4548                	lw	a0,12(a0)
8000172c:	1141                	addi	sp,sp,-16
8000172e:	8932                	mv	s2,a2
80001730:	4601                	li	a2,0
80001732:	c636                	sw	a3,12(sp)
80001734:	c43a                	sw	a4,8(sp)
80001736:	d07ff0ef          	jal	ra,8000143c <MCP_pinWrite>
8000173a:	0c800513          	li	a0,200
8000173e:	145020ef          	jal	ra,80004082 <hwdelay>
80001742:	864a                	mv	a2,s2
80001744:	85a6                	mv	a1,s1
80001746:	8522                	mv	a0,s0
80001748:	37a5                	jal	800016b0 <SPI_daisy_write>
8000174a:	4722                	lw	a4,8(sp)
8000174c:	46b2                	lw	a3,12(sp)
8000174e:	8522                	mv	a0,s0
80001750:	863a                	mv	a2,a4
80001752:	85b6                	mv	a1,a3
80001754:	ee1ff0ef          	jal	ra,80001634 <SPI_daisy_read>
80001758:	01344583          	lbu	a1,19(s0)
8000175c:	4448                	lw	a0,12(s0)
8000175e:	4605                	li	a2,1
80001760:	cddff0ef          	jal	ra,8000143c <MCP_pinWrite>
80001764:	0141                	addi	sp,sp,16
80001766:	6aa0306f          	j	80004e10 <__riscv_restore_0>

8000176a <autobitslip>:
autobitslip():
8000176a:	652032ef          	jal	t0,80004dbc <__riscv_save_12>
8000176e:	80007437          	lui	s0,0x80007
80001772:	cb840413          	addi	s0,s0,-840 # 80006cb8 <__stack_top+0xffffcd08>
80001776:	00444783          	lbu	a5,4(s0)
8000177a:	80007537          	lui	a0,0x80007
8000177e:	7171                	addi	sp,sp,-176
80001780:	cbe50513          	addi	a0,a0,-834 # 80006cbe <__stack_top+0xffffcd0e>
80001784:	c23e                	sw	a5,4(sp)
80001786:	00544d03          	lbu	s10,5(s0)
8000178a:	0d7020ef          	jal	ra,80004060 <readU32fromBytes>
8000178e:	c0a1a623          	sw	a0,-1012(gp) # 800055cc <channel_mask>
80001792:	80007537          	lui	a0,0x80007
80001796:	cc250513          	addi	a0,a0,-830 # 80006cc2 <__stack_top+0xffffcd12>
8000179a:	0c7020ef          	jal	ra,80004060 <readU32fromBytes>
8000179e:	c0c18493          	addi	s1,gp,-1012 # 800055cc <channel_mask>
800017a2:	c0c8                	sw	a0,4(s1)
800017a4:	80007537          	lui	a0,0x80007
800017a8:	cc650513          	addi	a0,a0,-826 # 80006cc6 <__stack_top+0xffffcd16>
800017ac:	0b5020ef          	jal	ra,80004060 <readU32fromBytes>
800017b0:	01244783          	lbu	a5,18(s0)
800017b4:	80007937          	lui	s2,0x80007
800017b8:	c488                	sw	a0,8(s1)
800017ba:	c43e                	sw	a5,8(sp)
800017bc:	455020ef          	jal	ra,80004410 <get_mapped_channels>
800017c0:	cb695703          	lhu	a4,-842(s2) # 80006cb6 <__stack_top+0xffffcd06>
800017c4:	800089b7          	lui	s3,0x80008
800017c8:	dc898693          	addi	a3,s3,-568 # 80007dc8 <__stack_top+0xffffde18>
800017cc:	00170793          	addi	a5,a4,1
800017d0:	07c2                	slli	a5,a5,0x10
800017d2:	9736                	add	a4,a4,a3
800017d4:	06700693          	li	a3,103
800017d8:	83c1                	srli	a5,a5,0x10
800017da:	00d70023          	sb	a3,0(a4)
800017de:	4601                	li	a2,0
800017e0:	80007737          	lui	a4,0x80007
800017e4:	4689                	li	a3,2
800017e6:	cb690593          	addi	a1,s2,-842
800017ea:	dc898513          	addi	a0,s3,-568
800017ee:	caf91b23          	sh	a5,-842(s2)
800017f2:	c8f71623          	sh	a5,-884(a4) # 80006c8c <__stack_top+0xffffccdc>
800017f6:	4eb020ef          	jal	ra,800044e0 <bufWrite>
800017fa:	4612                	lw	a2,4(sp)
800017fc:	4685                	li	a3,1
800017fe:	cb690593          	addi	a1,s2,-842
80001802:	dc898513          	addi	a0,s3,-568
80001806:	4db020ef          	jal	ra,800044e0 <bufWrite>
8000180a:	4622                	lw	a2,8(sp)
8000180c:	4685                	li	a3,1
8000180e:	cb690593          	addi	a1,s2,-842
80001812:	dc898513          	addi	a0,s3,-568
80001816:	4cb020ef          	jal	ra,800044e0 <bufWrite>
8000181a:	4a01                	li	s4,0
8000181c:	8b4a                	mv	s6,s2
8000181e:	8bce                	mv	s7,s3
80001820:	00418c13          	addi	s8,gp,4 # 800059c4 <mapped_channel_mask>
80001824:	4601                	li	a2,0
80001826:	4581                	li	a1,0
80001828:	06f00513          	li	a0,111
8000182c:	0fb020ef          	jal	ra,80004126 <digi_write>
80001830:	4521                	li	a0,8
80001832:	087020ef          	jal	ra,800040b8 <delayUs>
80001836:	4601                	li	a2,0
80001838:	4585                	li	a1,1
8000183a:	06f00513          	li	a0,111
8000183e:	0e9020ef          	jal	ra,80004126 <digi_write>
80001842:	4601                	li	a2,0
80001844:	4585                	li	a1,1
80001846:	450d                	li	a0,3
80001848:	0df020ef          	jal	ra,80004126 <digi_write>
8000184c:	4601                	li	a2,0
8000184e:	4585                	li	a1,1
80001850:	4511                	li	a0,4
80001852:	0d5020ef          	jal	ra,80004126 <digi_write>
80001856:	4601                	li	a2,0
80001858:	4581                	li	a1,0
8000185a:	4529                	li	a0,10
8000185c:	0cb020ef          	jal	ra,80004126 <digi_write>
80001860:	4601                	li	a2,0
80001862:	4585                	li	a1,1
80001864:	4531                	li	a0,12
80001866:	0c1020ef          	jal	ra,80004126 <digi_write>
8000186a:	4701                	li	a4,0
8000186c:	4c81                	li	s9,0
8000186e:	00418593          	addi	a1,gp,4 # 800059c4 <mapped_channel_mask>
80001872:	4505                	li	a0,1
80001874:	4631                	li	a2,12
80001876:	0ff77793          	andi	a5,a4,255
8000187a:	0fc7f693          	andi	a3,a5,252
8000187e:	96ae                	add	a3,a3,a1
80001880:	4294                	lw	a3,0(a3)
80001882:	8b8d                	andi	a5,a5,3
80001884:	078e                	slli	a5,a5,0x3
80001886:	00f6d7b3          	srl	a5,a3,a5
8000188a:	0ff7f793          	andi	a5,a5,255
8000188e:	cb81                	beqz	a5,8000189e <autobitslip+0x134>
80001890:	00e517b3          	sll	a5,a0,a4
80001894:	0197ecb3          	or	s9,a5,s9
80001898:	0cc2                	slli	s9,s9,0x10
8000189a:	010cdc93          	srli	s9,s9,0x10
8000189e:	0705                	addi	a4,a4,1
800018a0:	fcc71be3          	bne	a4,a2,80001876 <autobitslip+0x10c>
800018a4:	4401                	li	s0,0
800018a6:	4685                	li	a3,1
800018a8:	0ff00813          	li	a6,255
800018ac:	4db1                	li	s11,12
800018ae:	008694b3          	sll	s1,a3,s0
800018b2:	0194f633          	and	a2,s1,s9
800018b6:	0ff47793          	andi	a5,s0,255
800018ba:	56060163          	beqz	a2,80001e1c <autobitslip+0x6b2>
800018be:	04c2                	slli	s1,s1,0x10
800018c0:	80c1                	srli	s1,s1,0x10
800018c2:	8626                	mv	a2,s1
800018c4:	85ea                	mv	a1,s10
800018c6:	4559                	li	a0,22
800018c8:	2e5020ef          	jal	ra,800043ac <adc_write>
800018cc:	8626                	mv	a2,s1
800018ce:	45a5                	li	a1,9
800018d0:	4535                	li	a0,13
800018d2:	2db020ef          	jal	ra,800043ac <adc_write>
800018d6:	4685                	li	a3,1
800018d8:	0ff00813          	li	a6,255
800018dc:	0405                	addi	s0,s0,1
800018de:	fdb418e3          	bne	s0,s11,800018ae <autobitslip+0x144>
800018e2:	4685                	li	a3,1
800018e4:	866a                	mv	a2,s10
800018e6:	cb6b0593          	addi	a1,s6,-842
800018ea:	dc8b8513          	addi	a0,s7,-568
800018ee:	3f3020ef          	jal	ra,800044e0 <bufWrite>
800018f2:	cdc1a783          	lw	a5,-804(gp) # 8000569c <registers_0_addr>
800018f6:	4705                	li	a4,1
800018f8:	4592                	lw	a1,4(sp)
800018fa:	10e7ac23          	sw	a4,280(a5) # 10118 <HEAP_SIZE+0xf118>
800018fe:	20e7a223          	sw	a4,516(a5)
80001902:	4601                	li	a2,0
80001904:	06300513          	li	a0,99
80001908:	01f020ef          	jal	ra,80004126 <digi_write>
8000190c:	0041a583          	lw	a1,4(gp) # 800059c4 <mapped_channel_mask>
80001910:	0041a703          	lw	a4,4(gp) # 800059c4 <mapped_channel_mask>
80001914:	004c2783          	lw	a5,4(s8)
80001918:	004c2c83          	lw	s9,4(s8)
8000191c:	008c2483          	lw	s1,8(s8)
80001920:	008c2403          	lw	s0,8(s8)
80001924:	01079d93          	slli	s11,a5,0x10
80001928:	05c2                	slli	a1,a1,0x10
8000192a:	04c2                	slli	s1,s1,0x10
8000192c:	8341                	srli	a4,a4,0x10
8000192e:	81c1                	srli	a1,a1,0x10
80001930:	010ddd93          	srli	s11,s11,0x10
80001934:	010cdc93          	srli	s9,s9,0x10
80001938:	80c1                	srli	s1,s1,0x10
8000193a:	8041                	srli	s0,s0,0x10
8000193c:	4605                	li	a2,1
8000193e:	452d                	li	a0,11
80001940:	02b11023          	sh	a1,32(sp)
80001944:	02e11123          	sh	a4,34(sp)
80001948:	c03a                	sw	a4,0(sp)
8000194a:	03b11223          	sh	s11,36(sp)
8000194e:	03911323          	sh	s9,38(sp)
80001952:	02911423          	sh	s1,40(sp)
80001956:	02811523          	sh	s0,42(sp)
8000195a:	7cc020ef          	jal	ra,80004126 <digi_write>
8000195e:	4702                	lw	a4,0(sp)
80001960:	4605                	li	a2,1
80001962:	4539                	li	a0,14
80001964:	85ba                	mv	a1,a4
80001966:	7c0020ef          	jal	ra,80004126 <digi_write>
8000196a:	85ee                	mv	a1,s11
8000196c:	4605                	li	a2,1
8000196e:	4535                	li	a0,13
80001970:	7b6020ef          	jal	ra,80004126 <digi_write>
80001974:	85e6                	mv	a1,s9
80001976:	4609                	li	a2,2
80001978:	452d                	li	a0,11
8000197a:	7ac020ef          	jal	ra,80004126 <digi_write>
8000197e:	85a6                	mv	a1,s1
80001980:	4609                	li	a2,2
80001982:	4539                	li	a0,14
80001984:	7a2020ef          	jal	ra,80004126 <digi_write>
80001988:	4609                	li	a2,2
8000198a:	85a2                	mv	a1,s0
8000198c:	4535                	li	a0,13
8000198e:	798020ef          	jal	ra,80004126 <digi_write>
80001992:	02010c93          	addi	s9,sp,32
80001996:	87e6                	mv	a5,s9
80001998:	4481                	li	s1,0
8000199a:	4d99                	li	s11,6
8000199c:	458d                	li	a1,3
8000199e:	8526                	mv	a0,s1
800019a0:	0007d403          	lhu	s0,0(a5)
800019a4:	c63e                	sw	a5,12(sp)
800019a6:	496030ef          	jal	ra,80004e3c <__udivsi3>
800019aa:	00150613          	addi	a2,a0,1
800019ae:	0ff67613          	andi	a2,a2,255
800019b2:	458d                	li	a1,3
800019b4:	8526                	mv	a0,s1
800019b6:	c032                	sw	a2,0(sp)
800019b8:	4b0030ef          	jal	ra,80004e68 <__umodsi3>
800019bc:	4602                	lw	a2,0(sp)
800019be:	06050513          	addi	a0,a0,96
800019c2:	85a2                	mv	a1,s0
800019c4:	0ff57513          	andi	a0,a0,255
800019c8:	75e020ef          	jal	ra,80004126 <digi_write>
800019cc:	4689                	li	a3,2
800019ce:	8622                	mv	a2,s0
800019d0:	cb6b0593          	addi	a1,s6,-842
800019d4:	dc8b8513          	addi	a0,s7,-568
800019d8:	309020ef          	jal	ra,800044e0 <bufWrite>
800019dc:	47b2                	lw	a5,12(sp)
800019de:	0485                	addi	s1,s1,1
800019e0:	0ff4f493          	andi	s1,s1,255
800019e4:	0789                	addi	a5,a5,2
800019e6:	fbb49be3          	bne	s1,s11,8000199c <autobitslip+0x232>
800019ea:	4601                	li	a2,0
800019ec:	4585                	li	a1,1
800019ee:	06400513          	li	a0,100
800019f2:	734020ef          	jal	ra,80004126 <digi_write>
800019f6:	4521                	li	a0,8
800019f8:	6c0020ef          	jal	ra,800040b8 <delayUs>
800019fc:	4601                	li	a2,0
800019fe:	4581                	li	a1,0
80001a00:	06400513          	li	a0,100
80001a04:	722020ef          	jal	ra,80004126 <digi_write>
80001a08:	d602                	sw	zero,44(sp)
80001a0a:	d802                	sw	zero,48(sp)
80001a0c:	da02                	sw	zero,52(sp)
80001a0e:	dc02                	sw	zero,56(sp)
80001a10:	02faf737          	lui	a4,0x2faf
80001a14:	de02                	sw	zero,60(sp)
80001a16:	08070793          	addi	a5,a4,128 # 2faf080 <RAM_SIZE+0x2f8f080>
80001a1a:	c082                	sw	zero,64(sp)
80001a1c:	4d8d                	li	s11,3
80001a1e:	c63e                	sw	a5,12(sp)
80001a20:	4532                	lw	a0,12(sp)
80001a22:	4401                	li	s0,0
80001a24:	65e020ef          	jal	ra,80004082 <hwdelay>
80001a28:	8866                	mv	a6,s9
80001a2a:	4885                	li	a7,1
80001a2c:	0ff47693          	andi	a3,s0,255
80001a30:	458d                	li	a1,3
80001a32:	8536                	mv	a0,a3
80001a34:	ce42                	sw	a6,28(sp)
80001a36:	cc46                	sw	a7,24(sp)
80001a38:	c836                	sw	a3,16(sp)
80001a3a:	42e030ef          	jal	ra,80004e68 <__umodsi3>
80001a3e:	46c2                	lw	a3,16(sp)
80001a40:	0ff57793          	andi	a5,a0,255
80001a44:	458d                	li	a1,3
80001a46:	8536                	mv	a0,a3
80001a48:	c03e                	sw	a5,0(sp)
80001a4a:	3f2030ef          	jal	ra,80004e3c <__udivsi3>
80001a4e:	4782                	lw	a5,0(sp)
80001a50:	0505                	addi	a0,a0,1
80001a52:	0ff57613          	andi	a2,a0,255
80001a56:	06678513          	addi	a0,a5,102
80001a5a:	85b2                	mv	a1,a2
80001a5c:	0ff57513          	andi	a0,a0,255
80001a60:	ca32                	sw	a2,20(sp)
80001a62:	728020ef          	jal	ra,8000418a <digi_read>
80001a66:	191c                	addi	a5,sp,176
80001a68:	00141693          	slli	a3,s0,0x1
80001a6c:	96be                	add	a3,a3,a5
80001a6e:	4782                	lw	a5,0(sp)
80001a70:	4652                	lw	a2,20(sp)
80001a72:	f6a69e23          	sh	a0,-132(a3)
80001a76:	06978513          	addi	a0,a5,105
80001a7a:	85b2                	mv	a1,a2
80001a7c:	0ff57513          	andi	a0,a0,255
80001a80:	c836                	sw	a3,16(sp)
80001a82:	708020ef          	jal	ra,8000418a <digi_read>
80001a86:	46c2                	lw	a3,16(sp)
80001a88:	4872                	lw	a6,28(sp)
80001a8a:	48e2                	lw	a7,24(sp)
80001a8c:	f8a69423          	sh	a0,-120(a3)
80001a90:	f7c6d683          	lhu	a3,-132(a3)
80001a94:	00085603          	lhu	a2,0(a6)
80001a98:	8ef1                	and	a3,a3,a2
80001a9a:	00d60363          	beq	a2,a3,80001aa0 <autobitslip+0x336>
80001a9e:	4881                	li	a7,0
80001aa0:	0405                	addi	s0,s0,1
80001aa2:	4799                	li	a5,6
80001aa4:	0809                	addi	a6,a6,2
80001aa6:	f8f413e3          	bne	s0,a5,80001a2c <autobitslip+0x2c2>
80001aaa:	00089863          	bnez	a7,80001aba <autobitslip+0x350>
80001aae:	fffd8793          	addi	a5,s11,-1
80001ab2:	0ff7fd93          	andi	s11,a5,255
80001ab6:	f60d95e3          	bnez	s11,80001a20 <autobitslip+0x2b6>
80001aba:	4701                	li	a4,0
80001abc:	4401                	li	s0,0
80001abe:	00171793          	slli	a5,a4,0x1
80001ac2:	c63a                	sw	a4,12(sp)
80001ac4:	1918                	addi	a4,sp,176
80001ac6:	00f70db3          	add	s11,a4,a5
80001aca:	f7cdd603          	lhu	a2,-132(s11)
80001ace:	4689                	li	a3,2
80001ad0:	cb6b0593          	addi	a1,s6,-842
80001ad4:	dc8b8513          	addi	a0,s7,-568
80001ad8:	c03e                	sw	a5,0(sp)
80001ada:	207020ef          	jal	ra,800044e0 <bufWrite>
80001ade:	f88dd603          	lhu	a2,-120(s11)
80001ae2:	4689                	li	a3,2
80001ae4:	cb6b0593          	addi	a1,s6,-842
80001ae8:	dc8b8513          	addi	a0,s7,-568
80001aec:	1f5020ef          	jal	ra,800044e0 <bufWrite>
80001af0:	f7cdd683          	lhu	a3,-132(s11)
80001af4:	6641                	lui	a2,0x10
80001af6:	4782                	lw	a5,0(sp)
80001af8:	fff6c693          	not	a3,a3
80001afc:	0ff6f693          	andi	a3,a3,255
80001b00:	4732                	lw	a4,12(sp)
80001b02:	f0060813          	addi	a6,a2,-256 # ff00 <HEAP_SIZE+0xef00>
80001b06:	4319                	li	t1,6
80001b08:	4885                	li	a7,1
80001b0a:	c691                	beqz	a3,80001b16 <autobitslip+0x3ac>
80001b0c:	00f896b3          	sll	a3,a7,a5
80001b10:	8c55                	or	s0,s0,a3
80001b12:	0442                	slli	s0,s0,0x10
80001b14:	8041                	srli	s0,s0,0x10
80001b16:	1914                	addi	a3,sp,176
80001b18:	96be                	add	a3,a3,a5
80001b1a:	f7c6d683          	lhu	a3,-132(a3)
80001b1e:	fff6c693          	not	a3,a3
80001b22:	0106f6b3          	and	a3,a3,a6
80001b26:	c699                	beqz	a3,80001b34 <autobitslip+0x3ca>
80001b28:	0785                	addi	a5,a5,1
80001b2a:	00f897b3          	sll	a5,a7,a5
80001b2e:	8c5d                	or	s0,s0,a5
80001b30:	0442                	slli	s0,s0,0x10
80001b32:	8041                	srli	s0,s0,0x10
80001b34:	0705                	addi	a4,a4,1
80001b36:	f86714e3          	bne	a4,t1,80001abe <autobitslip+0x354>
80001b3a:	4781                	li	a5,0
80001b3c:	4685                	li	a3,1
80001b3e:	4db1                	li	s11,12
80001b40:	00f69633          	sll	a2,a3,a5
80001b44:	0642                	slli	a2,a2,0x10
80001b46:	8241                	srli	a2,a2,0x10
80001b48:	4585                	li	a1,1
80001b4a:	4535                	li	a0,13
80001b4c:	c03e                	sw	a5,0(sp)
80001b4e:	05f020ef          	jal	ra,800043ac <adc_write>
80001b52:	4782                	lw	a5,0(sp)
80001b54:	4685                	li	a3,1
80001b56:	0785                	addi	a5,a5,1
80001b58:	ffb794e3          	bne	a5,s11,80001b40 <autobitslip+0x3d6>
80001b5c:	4781                	li	a5,0
80001b5e:	567d                	li	a2,-1
80001b60:	06000713          	li	a4,96
80001b64:	0894                	addi	a3,sp,80
80001b66:	96be                	add	a3,a3,a5
80001b68:	00c68023          	sb	a2,0(a3)
80001b6c:	0785                	addi	a5,a5,1
80001b6e:	fee79be3          	bne	a5,a4,80001b64 <autobitslip+0x3fa>
80001b72:	c282                	sw	zero,68(sp)
80001b74:	c482                	sw	zero,72(sp)
80001b76:	c682                	sw	zero,76(sp)
80001b78:	4d81                	li	s11,0
80001b7a:	03200513          	li	a0,50
80001b7e:	504020ef          	jal	ra,80004082 <hwdelay>
80001b82:	4601                	li	a2,0
80001b84:	4581                	li	a1,0
80001b86:	07000513          	li	a0,112
80001b8a:	59c020ef          	jal	ra,80004126 <digi_write>
80001b8e:	4601                	li	a2,0
80001b90:	4585                	li	a1,1
80001b92:	06500513          	li	a0,101
80001b96:	590020ef          	jal	ra,80004126 <digi_write>
80001b9a:	4529                	li	a0,10
80001b9c:	51c020ef          	jal	ra,800040b8 <delayUs>
80001ba0:	4601                	li	a2,0
80001ba2:	4581                	li	a1,0
80001ba4:	06500513          	li	a0,101
80001ba8:	57e020ef          	jal	ra,80004126 <digi_write>
80001bac:	4781                	li	a5,0
80001bae:	0ff7f613          	andi	a2,a5,255
80001bb2:	458d                	li	a1,3
80001bb4:	8532                	mv	a0,a2
80001bb6:	c83e                	sw	a5,16(sp)
80001bb8:	c632                	sw	a2,12(sp)
80001bba:	282030ef          	jal	ra,80004e3c <__udivsi3>
80001bbe:	4632                	lw	a2,12(sp)
80001bc0:	0505                	addi	a0,a0,1
80001bc2:	0ff57693          	andi	a3,a0,255
80001bc6:	458d                	li	a1,3
80001bc8:	8532                	mv	a0,a2
80001bca:	c036                	sw	a3,0(sp)
80001bcc:	29c030ef          	jal	ra,80004e68 <__umodsi3>
80001bd0:	4682                	lw	a3,0(sp)
80001bd2:	06c50513          	addi	a0,a0,108
80001bd6:	0ff57513          	andi	a0,a0,255
80001bda:	85b6                	mv	a1,a3
80001bdc:	5ae020ef          	jal	ra,8000418a <digi_read>
80001be0:	47c2                	lw	a5,16(sp)
80001be2:	1918                	addi	a4,sp,176
80001be4:	00179693          	slli	a3,a5,0x1
80001be8:	96ba                	add	a3,a3,a4
80001bea:	f8a69a23          	sh	a0,-108(a3)
80001bee:	0785                	addi	a5,a5,1
80001bf0:	4719                	li	a4,6
80001bf2:	fae79ee3          	bne	a5,a4,80001bae <autobitslip+0x444>
80001bf6:	4681                	li	a3,0
80001bf8:	4585                	li	a1,1
80001bfa:	0ff6f793          	andi	a5,a3,255
80001bfe:	0047d613          	srli	a2,a5,0x4
80001c02:	0606                	slli	a2,a2,0x1
80001c04:	1918                	addi	a4,sp,176
80001c06:	963a                	add	a2,a2,a4
80001c08:	f9465603          	lhu	a2,-108(a2)
80001c0c:	8bbd                	andi	a5,a5,15
80001c0e:	00f597b3          	sll	a5,a1,a5
80001c12:	8ff1                	and	a5,a5,a2
80001c14:	cb99                	beqz	a5,80001c2a <autobitslip+0x4c0>
80001c16:	089c                	addi	a5,sp,80
80001c18:	97b6                	add	a5,a5,a3
80001c1a:	0007c603          	lbu	a2,0(a5)
80001c1e:	0ff00713          	li	a4,255
80001c22:	00e61463          	bne	a2,a4,80001c2a <autobitslip+0x4c0>
80001c26:	01b78023          	sb	s11,0(a5)
80001c2a:	0685                	addi	a3,a3,1
80001c2c:	06000793          	li	a5,96
80001c30:	fcf695e3          	bne	a3,a5,80001bfa <autobitslip+0x490>
80001c34:	001d8713          	addi	a4,s11,1
80001c38:	0ff77d93          	andi	s11,a4,255
80001c3c:	47a9                	li	a5,10
80001c3e:	f2fd9ee3          	bne	s11,a5,80001b7a <autobitslip+0x410>
80001c42:	4801                	li	a6,0
80001c44:	00181793          	slli	a5,a6,0x1
80001c48:	1918                	addi	a4,sp,176
80001c4a:	973e                	add	a4,a4,a5
80001c4c:	f9475603          	lhu	a2,-108(a4)
80001c50:	4689                	li	a3,2
80001c52:	cb6b0593          	addi	a1,s6,-842
80001c56:	dc8b8513          	addi	a0,s7,-568
80001c5a:	c842                	sw	a6,16(sp)
80001c5c:	c63e                	sw	a5,12(sp)
80001c5e:	c03a                	sw	a4,0(sp)
80001c60:	081020ef          	jal	ra,800044e0 <bufWrite>
80001c64:	4702                	lw	a4,0(sp)
80001c66:	66c1                	lui	a3,0x10
80001c68:	47b2                	lw	a5,12(sp)
80001c6a:	f9475703          	lhu	a4,-108(a4)
80001c6e:	4842                	lw	a6,16(sp)
80001c70:	f0068893          	addi	a7,a3,-256 # ff00 <HEAP_SIZE+0xef00>
80001c74:	fff74713          	not	a4,a4
80001c78:	0ff77713          	andi	a4,a4,255
80001c7c:	4e19                	li	t3,6
80001c7e:	4305                	li	t1,1
80001c80:	c711                	beqz	a4,80001c8c <autobitslip+0x522>
80001c82:	00f31733          	sll	a4,t1,a5
80001c86:	8c59                	or	s0,s0,a4
80001c88:	0442                	slli	s0,s0,0x10
80001c8a:	8041                	srli	s0,s0,0x10
80001c8c:	1918                	addi	a4,sp,176
80001c8e:	973e                	add	a4,a4,a5
80001c90:	f9475703          	lhu	a4,-108(a4)
80001c94:	fff74713          	not	a4,a4
80001c98:	01177733          	and	a4,a4,a7
80001c9c:	c719                	beqz	a4,80001caa <autobitslip+0x540>
80001c9e:	0785                	addi	a5,a5,1
80001ca0:	00f317b3          	sll	a5,t1,a5
80001ca4:	8c5d                	or	s0,s0,a5
80001ca6:	0442                	slli	s0,s0,0x10
80001ca8:	8041                	srli	s0,s0,0x10
80001caa:	0805                	addi	a6,a6,1
80001cac:	f9c81ce3          	bne	a6,t3,80001c44 <autobitslip+0x4da>
80001cb0:	4781                	li	a5,0
80001cb2:	0898                	addi	a4,sp,80
80001cb4:	00f70633          	add	a2,a4,a5
80001cb8:	c03e                	sw	a5,0(sp)
80001cba:	00064603          	lbu	a2,0(a2)
80001cbe:	800077b7          	lui	a5,0x80007
80001cc2:	cb678593          	addi	a1,a5,-842 # 80006cb6 <__stack_top+0xffffcd06>
80001cc6:	800087b7          	lui	a5,0x80008
80001cca:	dc878513          	addi	a0,a5,-568 # 80007dc8 <__stack_top+0xffffde18>
80001cce:	4685                	li	a3,1
80001cd0:	011020ef          	jal	ra,800044e0 <bufWrite>
80001cd4:	4782                	lw	a5,0(sp)
80001cd6:	06000713          	li	a4,96
80001cda:	0785                	addi	a5,a5,1
80001cdc:	fce79be3          	bne	a5,a4,80001cb2 <autobitslip+0x548>
80001ce0:	47a2                	lw	a5,8(sp)
80001ce2:	14078a63          	beqz	a5,80001e36 <autobitslip+0x6cc>
80001ce6:	4481                	li	s1,0
80001ce8:	4705                	li	a4,1
80001cea:	00971633          	sll	a2,a4,s1
80001cee:	0642                	slli	a2,a2,0x10
80001cf0:	8241                	srli	a2,a2,0x10
80001cf2:	45b1                	li	a1,12
80001cf4:	4535                	li	a0,13
80001cf6:	6b6020ef          	jal	ra,800043ac <adc_write>
80001cfa:	0485                	addi	s1,s1,1
80001cfc:	47b1                	li	a5,12
80001cfe:	4705                	li	a4,1
80001d00:	fef495e3          	bne	s1,a5,80001cea <autobitslip+0x580>
80001d04:	4601                	li	a2,0
80001d06:	4585                	li	a1,1
80001d08:	07000513          	li	a0,112
80001d0c:	41a020ef          	jal	ra,80004126 <digi_write>
80001d10:	4601                	li	a2,0
80001d12:	4585                	li	a1,1
80001d14:	06500513          	li	a0,101
80001d18:	40e020ef          	jal	ra,80004126 <digi_write>
80001d1c:	4529                	li	a0,10
80001d1e:	39a020ef          	jal	ra,800040b8 <delayUs>
80001d22:	4601                	li	a2,0
80001d24:	4581                	li	a1,0
80001d26:	06500513          	li	a0,101
80001d2a:	3fc020ef          	jal	ra,80004126 <digi_write>
80001d2e:	4701                	li	a4,0
80001d30:	0ff77493          	andi	s1,a4,255
80001d34:	458d                	li	a1,3
80001d36:	8526                	mv	a0,s1
80001d38:	c63a                	sw	a4,12(sp)
80001d3a:	102030ef          	jal	ra,80004e3c <__udivsi3>
80001d3e:	0505                	addi	a0,a0,1
80001d40:	0ff57793          	andi	a5,a0,255
80001d44:	458d                	li	a1,3
80001d46:	8526                	mv	a0,s1
80001d48:	c03e                	sw	a5,0(sp)
80001d4a:	11e030ef          	jal	ra,80004e68 <__umodsi3>
80001d4e:	4782                	lw	a5,0(sp)
80001d50:	07150513          	addi	a0,a0,113
80001d54:	0ff57513          	andi	a0,a0,255
80001d58:	85be                	mv	a1,a5
80001d5a:	430020ef          	jal	ra,8000418a <digi_read>
80001d5e:	84aa                	mv	s1,a0
80001d60:	862a                	mv	a2,a0
80001d62:	4689                	li	a3,2
80001d64:	cb690593          	addi	a1,s2,-842
80001d68:	dc898513          	addi	a0,s3,-568
80001d6c:	774020ef          	jal	ra,800044e0 <bufWrite>
80001d70:	000cd783          	lhu	a5,0(s9)
80001d74:	fff4c493          	not	s1,s1
80001d78:	4732                	lw	a4,12(sp)
80001d7a:	8cfd                	and	s1,s1,a5
80001d7c:	0ff4f793          	andi	a5,s1,255
80001d80:	4899                	li	a7,6
80001d82:	4805                	li	a6,1
80001d84:	cb81                	beqz	a5,80001d94 <autobitslip+0x62a>
80001d86:	00171793          	slli	a5,a4,0x1
80001d8a:	00f817b3          	sll	a5,a6,a5
80001d8e:	8c5d                	or	s0,s0,a5
80001d90:	0442                	slli	s0,s0,0x10
80001d92:	8041                	srli	s0,s0,0x10
80001d94:	f004f493          	andi	s1,s1,-256
80001d98:	c889                	beqz	s1,80001daa <autobitslip+0x640>
80001d9a:	00171793          	slli	a5,a4,0x1
80001d9e:	0785                	addi	a5,a5,1
80001da0:	00f817b3          	sll	a5,a6,a5
80001da4:	8c5d                	or	s0,s0,a5
80001da6:	0442                	slli	s0,s0,0x10
80001da8:	8041                	srli	s0,s0,0x10
80001daa:	0705                	addi	a4,a4,1
80001dac:	0c89                	addi	s9,s9,2
80001dae:	f91711e3          	bne	a4,a7,80001d30 <autobitslip+0x5c6>
80001db2:	0a05                	addi	s4,s4,1
80001db4:	0ffa7a13          	andi	s4,s4,255
80001db8:	c045                	beqz	s0,80001e58 <autobitslip+0x6ee>
80001dba:	4799                	li	a5,6
80001dbc:	08fa0e63          	beq	s4,a5,80001e58 <autobitslip+0x6ee>
80001dc0:	478d                	li	a5,3
80001dc2:	08fa1763          	bne	s4,a5,80001e50 <autobitslip+0x6e6>
80001dc6:	003d0513          	addi	a0,s10,3
80001dca:	45b1                	li	a1,12
80001dcc:	0c0030ef          	jal	ra,80004e8c <__modsi3>
80001dd0:	0ff57d13          	andi	s10,a0,255
80001dd4:	0001a223          	sw	zero,4(gp) # 800059c4 <mapped_channel_mask>
80001dd8:	00418793          	addi	a5,gp,4 # 800059c4 <mapped_channel_mask>
80001ddc:	0007a223          	sw	zero,4(a5)
80001de0:	0007a423          	sw	zero,8(a5)
80001de4:	4701                	li	a4,0
80001de6:	00418593          	addi	a1,gp,4 # 800059c4 <mapped_channel_mask>
80001dea:	0ff00513          	li	a0,255
80001dee:	4631                	li	a2,12
80001df0:	40e456b3          	sra	a3,s0,a4
80001df4:	8a85                	andi	a3,a3,1
80001df6:	0ff77793          	andi	a5,a4,255
80001dfa:	ce89                	beqz	a3,80001e14 <autobitslip+0x6aa>
80001dfc:	0fc7f693          	andi	a3,a5,252
80001e00:	96ae                	add	a3,a3,a1
80001e02:	0006a803          	lw	a6,0(a3)
80001e06:	8b8d                	andi	a5,a5,3
80001e08:	078e                	slli	a5,a5,0x3
80001e0a:	00f517b3          	sll	a5,a0,a5
80001e0e:	0107e7b3          	or	a5,a5,a6
80001e12:	c29c                	sw	a5,0(a3)
80001e14:	0705                	addi	a4,a4,1
80001e16:	fcc71de3          	bne	a4,a2,80001df0 <autobitslip+0x686>
80001e1a:	b429                	j	80001824 <autobitslip+0xba>
80001e1c:	0fc7f613          	andi	a2,a5,252
80001e20:	9662                	add	a2,a2,s8
80001e22:	8b8d                	andi	a5,a5,3
80001e24:	420c                	lw	a1,0(a2)
80001e26:	078e                	slli	a5,a5,0x3
80001e28:	00f817b3          	sll	a5,a6,a5
80001e2c:	fff7c793          	not	a5,a5
80001e30:	8fed                	and	a5,a5,a1
80001e32:	c21c                	sw	a5,0(a2)
80001e34:	b465                	j	800018dc <autobitslip+0x172>
80001e36:	14fd                	addi	s1,s1,-1
80001e38:	4689                	li	a3,2
80001e3a:	4601                	li	a2,0
80001e3c:	cb690593          	addi	a1,s2,-842
80001e40:	dc898513          	addi	a0,s3,-568
80001e44:	0ff4f493          	andi	s1,s1,255
80001e48:	698020ef          	jal	ra,800044e0 <bufWrite>
80001e4c:	f4ed                	bnez	s1,80001e36 <autobitslip+0x6cc>
80001e4e:	b795                	j	80001db2 <autobitslip+0x648>
80001e50:	4789                	li	a5,2
80001e52:	9d47f9e3          	bgeu	a5,s4,80001824 <autobitslip+0xba>
80001e56:	bfbd                	j	80001dd4 <autobitslip+0x66a>
80001e58:	4401                	li	s0,0
80001e5a:	4a05                	li	s4,1
80001e5c:	44b1                	li	s1,12
80001e5e:	008a1633          	sll	a2,s4,s0
80001e62:	0642                	slli	a2,a2,0x10
80001e64:	8241                	srli	a2,a2,0x10
80001e66:	4581                	li	a1,0
80001e68:	4535                	li	a0,13
80001e6a:	0405                	addi	s0,s0,1
80001e6c:	540020ef          	jal	ra,800043ac <adc_write>
80001e70:	fe9417e3          	bne	s0,s1,80001e5e <autobitslip+0x6f4>
80001e74:	cb695603          	lhu	a2,-842(s2)
80001e78:	800075b7          	lui	a1,0x80007
80001e7c:	dc898513          	addi	a0,s3,-568
80001e80:	4689                	li	a3,2
80001e82:	1675                	addi	a2,a2,-3
80001e84:	c8c58593          	addi	a1,a1,-884 # 80006c8c <__stack_top+0xffffccdc>
80001e88:	658020ef          	jal	ra,800044e0 <bufWrite>
80001e8c:	800077b7          	lui	a5,0x80007
80001e90:	c907a503          	lw	a0,-880(a5) # 80006c90 <__stack_top+0xffffcce0>
80001e94:	c9078793          	addi	a5,a5,-880
80001e98:	cb695683          	lhu	a3,-842(s2)
80001e9c:	43cc                	lw	a1,4(a5)
80001e9e:	dc898613          	addi	a2,s3,-568
80001ea2:	531020ef          	jal	ra,80004bd2 <outBufSend>
80001ea6:	614d                	addi	sp,sp,176
80001ea8:	7510206f          	j	80004df8 <__riscv_restore_12>

80001eac <bme280_set_regs>:
bme280_set_regs():
80001eac:	741022ef          	jal	t0,80004dec <__riscv_save_0>
80001eb0:	1141                	addi	sp,sp,-16
80001eb2:	0038                	addi	a4,sp,8
80001eb4:	842a                	mv	s0,a0
80001eb6:	84ae                	mv	s1,a1
80001eb8:	c402                	sw	zero,8(sp)
80001eba:	c602                	sw	zero,12(sp)
80001ebc:	4781                	li	a5,0
80001ebe:	893a                	mv	s2,a4
80001ec0:	0ff7f593          	andi	a1,a5,255
80001ec4:	0295ec63          	bltu	a1,s1,80001efc <bme280_set_regs+0x50>
80001ec8:	01344583          	lbu	a1,19(s0)
80001ecc:	4448                	lw	a0,12(s0)
80001ece:	4601                	li	a2,0
80001ed0:	d6cff0ef          	jal	ra,8000143c <MCP_pinWrite>
80001ed4:	4509                	li	a0,2
80001ed6:	1ac020ef          	jal	ra,80004082 <hwdelay>
80001eda:	00149593          	slli	a1,s1,0x1
80001ede:	864a                	mv	a2,s2
80001ee0:	8522                	mv	a0,s0
80001ee2:	0fe5f593          	andi	a1,a1,254
80001ee6:	fcaff0ef          	jal	ra,800016b0 <SPI_daisy_write>
80001eea:	01344583          	lbu	a1,19(s0)
80001eee:	4448                	lw	a0,12(s0)
80001ef0:	4605                	li	a2,1
80001ef2:	d4aff0ef          	jal	ra,8000143c <MCP_pinWrite>
80001ef6:	0141                	addi	sp,sp,16
80001ef8:	7190206f          	j	80004e10 <__riscv_restore_0>
80001efc:	00f605b3          	add	a1,a2,a5
80001f00:	0005c583          	lbu	a1,0(a1)
80001f04:	0709                	addi	a4,a4,2
80001f06:	07f5f593          	andi	a1,a1,127
80001f0a:	feb70f23          	sb	a1,-2(a4)
80001f0e:	00f685b3          	add	a1,a3,a5
80001f12:	0005c583          	lbu	a1,0(a1)
80001f16:	0785                	addi	a5,a5,1
80001f18:	feb70fa3          	sb	a1,-1(a4)
80001f1c:	b755                	j	80001ec0 <bme280_set_regs+0x14>

80001f1e <bme280_get_regs>:
bme280_get_regs():
80001f1e:	6cf022ef          	jal	t0,80004dec <__riscv_save_0>
80001f22:	1141                	addi	sp,sp,-16
80001f24:	f805e593          	ori	a1,a1,-128
80001f28:	00b107a3          	sb	a1,15(sp)
80001f2c:	8736                	mv	a4,a3
80001f2e:	4585                	li	a1,1
80001f30:	86b2                	mv	a3,a2
80001f32:	00f10613          	addi	a2,sp,15
80001f36:	fe8ff0ef          	jal	ra,8000171e <SPI_daisy_rw_cycle>
80001f3a:	0141                	addi	sp,sp,16
80001f3c:	6d50206f          	j	80004e10 <__riscv_restore_0>

80001f40 <bme280_init_settings>:
bme280_init_settings():
80001f40:	6ad022ef          	jal	t0,80004dec <__riscv_save_0>
80001f44:	1141                	addi	sp,sp,-16
80001f46:	00110693          	addi	a3,sp,1
80001f4a:	4605                	li	a2,1
80001f4c:	0d000593          	li	a1,208
80001f50:	842a                	mv	s0,a0
80001f52:	000100a3          	sb	zero,1(sp)
80001f56:	fc9ff0ef          	jal	ra,80001f1e <bme280_get_regs>
80001f5a:	5781                	li	a5,-32
80001f5c:	00310693          	addi	a3,sp,3
80001f60:	00210613          	addi	a2,sp,2
80001f64:	4585                	li	a1,1
80001f66:	00f10123          	sb	a5,2(sp)
80001f6a:	8522                	mv	a0,s0
80001f6c:	fb600793          	li	a5,-74
80001f70:	00f101a3          	sb	a5,3(sp)
80001f74:	f39ff0ef          	jal	ra,80001eac <bme280_set_regs>
80001f78:	4509                	li	a0,2
80001f7a:	128020ef          	jal	ra,800040a2 <delay_ms>
80001f7e:	800057b7          	lui	a5,0x80005
80001f82:	1c07d703          	lhu	a4,448(a5) # 800051c0 <__stack_top+0xffffb210>
80001f86:	1c078793          	addi	a5,a5,448
80001f8a:	0027c783          	lbu	a5,2(a5)
80001f8e:	0034                	addi	a3,sp,8
80001f90:	0050                	addi	a2,sp,4
80001f92:	00f10323          	sb	a5,6(sp)
80001f96:	11000793          	li	a5,272
80001f9a:	458d                	li	a1,3
80001f9c:	00f11423          	sh	a5,8(sp)
80001fa0:	8522                	mv	a0,s0
80001fa2:	05400793          	li	a5,84
80001fa6:	00e11223          	sh	a4,4(sp)
80001faa:	00f10523          	sb	a5,10(sp)
80001fae:	effff0ef          	jal	ra,80001eac <bme280_set_regs>
80001fb2:	03200513          	li	a0,50
80001fb6:	0cc020ef          	jal	ra,80004082 <hwdelay>
80001fba:	8522                	mv	a0,s0
80001fbc:	0074                	addi	a3,sp,12
80001fbe:	4611                	li	a2,4
80001fc0:	0f200593          	li	a1,242
80001fc4:	c602                	sw	zero,12(sp)
80001fc6:	f59ff0ef          	jal	ra,80001f1e <bme280_get_regs>
80001fca:	00c14703          	lbu	a4,12(sp)
80001fce:	00914783          	lbu	a5,9(sp)
80001fd2:	4505                	li	a0,1
80001fd4:	02f71063          	bne	a4,a5,80001ff4 <bme280_init_settings+0xb4>
80001fd8:	00e14703          	lbu	a4,14(sp)
80001fdc:	00a14783          	lbu	a5,10(sp)
80001fe0:	4505                	li	a0,1
80001fe2:	00f71963          	bne	a4,a5,80001ff4 <bme280_init_settings+0xb4>
80001fe6:	00f14503          	lbu	a0,15(sp)
80001fea:	00814783          	lbu	a5,8(sp)
80001fee:	8d1d                	sub	a0,a0,a5
80001ff0:	00a03533          	snez	a0,a0
80001ff4:	0141                	addi	sp,sp,16
80001ff6:	61b0206f          	j	80004e10 <__riscv_restore_0>

80001ffa <bme280_get_calib>:
bme280_get_calib():
80001ffa:	5f3022ef          	jal	t0,80004dec <__riscv_save_0>
80001ffe:	84b2                	mv	s1,a2
80002000:	86ae                	mv	a3,a1
80002002:	4669                	li	a2,26
80002004:	08800593          	li	a1,136
80002008:	842a                	mv	s0,a0
8000200a:	f15ff0ef          	jal	ra,80001f1e <bme280_get_regs>
8000200e:	86a6                	mv	a3,s1
80002010:	461d                	li	a2,7
80002012:	0e100593          	li	a1,225
80002016:	8522                	mv	a0,s0
80002018:	f07ff0ef          	jal	ra,80001f1e <bme280_get_regs>
8000201c:	5f50206f          	j	80004e10 <__riscv_restore_0>

80002020 <bme280_get_htp>:
bme280_get_htp():
80002020:	5cd022ef          	jal	t0,80004dec <__riscv_save_0>
80002024:	1141                	addi	sp,sp,-16
80002026:	84ae                	mv	s1,a1
80002028:	57d1                	li	a5,-12
8000202a:	00e10693          	addi	a3,sp,14
8000202e:	4605                	li	a2,1
80002030:	0f400593          	li	a1,244
80002034:	842a                	mv	s0,a0
80002036:	00f107a3          	sb	a5,15(sp)
8000203a:	00010723          	sb	zero,14(sp)
8000203e:	ee1ff0ef          	jal	ra,80001f1e <bme280_get_regs>
80002042:	00e14783          	lbu	a5,14(sp)
80002046:	00e10693          	addi	a3,sp,14
8000204a:	00f10613          	addi	a2,sp,15
8000204e:	0017e793          	ori	a5,a5,1
80002052:	4585                	li	a1,1
80002054:	8522                	mv	a0,s0
80002056:	00f10723          	sb	a5,14(sp)
8000205a:	e53ff0ef          	jal	ra,80001eac <bme280_set_regs>
8000205e:	00262537          	lui	a0,0x262
80002062:	5a050513          	addi	a0,a0,1440 # 2625a0 <RAM_SIZE+0x2425a0>
80002066:	01c020ef          	jal	ra,80004082 <hwdelay>
8000206a:	86a6                	mv	a3,s1
8000206c:	4621                	li	a2,8
8000206e:	0f700593          	li	a1,247
80002072:	8522                	mv	a0,s0
80002074:	eabff0ef          	jal	ra,80001f1e <bme280_get_regs>
80002078:	0141                	addi	sp,sp,16
8000207a:	5970206f          	j	80004e10 <__riscv_restore_0>

8000207e <main>:
main():
8000207e:	53f022ef          	jal	t0,80004dbc <__riscv_save_12>
80002082:	80007437          	lui	s0,0x80007
80002086:	cb010113          	addi	sp,sp,-848
8000208a:	4685                	li	a3,1
8000208c:	c9040513          	addi	a0,s0,-880 # 80006c90 <__stack_top+0xffffcce0>
80002090:	4669                	li	a2,26
80002092:	700035b7          	lui	a1,0x70003
80002096:	afcfe0ef          	jal	ra,80000392 <UART_init>
8000209a:	800055b7          	lui	a1,0x80005
8000209e:	02900613          	li	a2,41
800020a2:	17058593          	addi	a1,a1,368 # 80005170 <__stack_top+0xffffb1c0>
800020a6:	11c8                	addi	a0,sp,228
800020a8:	60b020ef          	jal	ra,80004eb2 <memcpy>
800020ac:	c9040513          	addi	a0,s0,-880
800020b0:	11cc                	addi	a1,sp,228
800020b2:	bb0fe0ef          	jal	ra,80000462 <UART_polled_tx_string>
800020b6:	80007a37          	lui	s4,0x80007
800020ba:	4609                	li	a2,2
800020bc:	700005b7          	lui	a1,0x70000
800020c0:	c14a0513          	addi	a0,s4,-1004 # 80006c14 <__stack_top+0xffffcc64>
800020c4:	b2dfe0ef          	jal	ra,80000bf0 <GPIO_init>
800020c8:	4601                	li	a2,0
800020ca:	4581                	li	a1,0
800020cc:	c14a0513          	addi	a0,s4,-1004
800020d0:	bb9fe0ef          	jal	ra,80000c88 <GPIO_set_output>
800020d4:	700027b7          	lui	a5,0x70002
800020d8:	ccf1ae23          	sw	a5,-804(gp) # 8000569c <registers_0_addr>
800020dc:	4705                	li	a4,1
800020de:	c7b8                	sw	a4,72(a5)
800020e0:	0407a623          	sw	zero,76(a5) # 7000204c <RAM_SIZE+0x6ffe204c>
800020e4:	c822                	sw	s0,16(sp)
800020e6:	6439                	lui	s0,0xe
800020e8:	3e800493          	li	s1,1000
800020ec:	ead40413          	addi	s0,s0,-339 # dead <HEAP_SIZE+0xcead>
800020f0:	85a2                	mv	a1,s0
800020f2:	08100513          	li	a0,129
800020f6:	4605                	li	a2,1
800020f8:	02e020ef          	jal	ra,80004126 <digi_write>
800020fc:	4585                	li	a1,1
800020fe:	08100513          	li	a0,129
80002102:	088020ef          	jal	ra,8000418a <digi_read>
80002106:	60850963          	beq	a0,s0,80002718 <main+0x69a>
8000210a:	3e800513          	li	a0,1000
8000210e:	14fd                	addi	s1,s1,-1
80002110:	7a9010ef          	jal	ra,800040b8 <delayUs>
80002114:	fcf1                	bnez	s1,800020f0 <main+0x72>
80002116:	6439                	lui	s0,0xe
80002118:	3e800493          	li	s1,1000
8000211c:	ead40413          	addi	s0,s0,-339 # dead <HEAP_SIZE+0xcead>
80002120:	85a2                	mv	a1,s0
80002122:	08100513          	li	a0,129
80002126:	4609                	li	a2,2
80002128:	7ff010ef          	jal	ra,80004126 <digi_write>
8000212c:	4589                	li	a1,2
8000212e:	08100513          	li	a0,129
80002132:	058020ef          	jal	ra,8000418a <digi_read>
80002136:	5e850b63          	beq	a0,s0,8000272c <main+0x6ae>
8000213a:	3e800513          	li	a0,1000
8000213e:	14fd                	addi	s1,s1,-1
80002140:	779010ef          	jal	ra,800040b8 <delayUs>
80002144:	fcf1                	bnez	s1,80002120 <main+0xa2>
80002146:	6405                	lui	s0,0x1
80002148:	fff40613          	addi	a2,s0,-1 # fff <STACK_SIZE+0x7ff>
8000214c:	4585                	li	a1,1
8000214e:	4521                	li	a0,8
80002150:	25c020ef          	jal	ra,800043ac <adc_write>
80002154:	fff40613          	addi	a2,s0,-1
80002158:	4581                	li	a1,0
8000215a:	4521                	li	a0,8
8000215c:	250020ef          	jal	ra,800043ac <adc_write>
80002160:	460d                	li	a2,3
80002162:	4589                	li	a1,2
80002164:	fff40513          	addi	a0,s0,-1
80002168:	3a2020ef          	jal	ra,8000450a <init_adc>
8000216c:	70008537          	lui	a0,0x70008
80002170:	c18fe0ef          	jal	ra,80000588 <SYS_init>
80002174:	80008ab7          	lui	s5,0x80008
80002178:	4621                	li	a2,8
8000217a:	700045b7          	lui	a1,0x70004
8000217e:	5a0a8513          	addi	a0,s5,1440 # 800085a0 <__stack_top+0xffffe5f0>
80002182:	c6efe0ef          	jal	ra,800005f0 <SPI_init>
80002186:	5a0a8513          	addi	a0,s5,1440
8000218a:	cd0fe0ef          	jal	ra,8000065a <SPI_configure_master_mode>
8000218e:	80008437          	lui	s0,0x80008
80002192:	4621                	li	a2,8
80002194:	700055b7          	lui	a1,0x70005
80002198:	5ec40513          	addi	a0,s0,1516 # 800085ec <__stack_top+0xffffe63c>
8000219c:	c54fe0ef          	jal	ra,800005f0 <SPI_init>
800021a0:	5ec40513          	addi	a0,s0,1516
800021a4:	cb6fe0ef          	jal	ra,8000065a <SPI_configure_master_mode>
800021a8:	80008937          	lui	s2,0x80008
800021ac:	4621                	li	a2,8
800021ae:	700065b7          	lui	a1,0x70006
800021b2:	63890513          	addi	a0,s2,1592 # 80008638 <__stack_top+0xffffe688>
800021b6:	c3afe0ef          	jal	ra,800005f0 <SPI_init>
800021ba:	63890513          	addi	a0,s2,1592
800021be:	c9cfe0ef          	jal	ra,8000065a <SPI_configure_master_mode>
800021c2:	80008bb7          	lui	s7,0x80008
800021c6:	4621                	li	a2,8
800021c8:	700075b7          	lui	a1,0x70007
800021cc:	684b8513          	addi	a0,s7,1668 # 80008684 <__stack_top+0xffffe6d4>
800021d0:	c20fe0ef          	jal	ra,800005f0 <SPI_init>
800021d4:	684b8513          	addi	a0,s7,1668
800021d8:	c82fe0ef          	jal	ra,8000065a <SPI_configure_master_mode>
800021dc:	80008437          	lui	s0,0x80008
800021e0:	6d040513          	addi	a0,s0,1744 # 800086d0 <__stack_top+0xffffe720>
800021e4:	4621                	li	a2,8
800021e6:	700095b7          	lui	a1,0x70009
800021ea:	c06fe0ef          	jal	ra,800005f0 <SPI_init>
800021ee:	6d040513          	addi	a0,s0,1744
800021f2:	80006437          	lui	s0,0x80006
800021f6:	c64fe0ef          	jal	ra,8000065a <SPI_configure_master_mode>
800021fa:	73440b13          	addi	s6,s0,1844 # 80006734 <__stack_top+0xffffc784>
800021fe:	4481                	li	s1,0
80002200:	73440c13          	addi	s8,s0,1844
80002204:	4d11                	li	s10,4
80002206:	5a0a8a93          	addi	s5,s5,1440
8000220a:	4da1                	li	s11,8
8000220c:	63890913          	addi	s2,s2,1592
80002210:	684b8b93          	addi	s7,s7,1668
80002214:	4cb1                	li	s9,12
80002216:	04c00613          	li	a2,76
8000221a:	529d4363          	blt	s10,s1,80002740 <main+0x6c2>
8000221e:	85de                	mv	a1,s7
80002220:	1088                	addi	a0,sp,96
80002222:	491020ef          	jal	ra,80004eb2 <memcpy>
80002226:	02048693          	addi	a3,s1,32
8000222a:	4701                	li	a4,0
8000222c:	0ff6f693          	andi	a3,a3,255
80002230:	4601                	li	a2,0
80002232:	855a                	mv	a0,s6
80002234:	108c                	addi	a1,sp,96
80002236:	0485                	addi	s1,s1,1
80002238:	8dcff0ef          	jal	ra,80001314 <MCP_setup>
8000223c:	068b0b13          	addi	s6,s6,104
80002240:	fd949be3          	bne	s1,s9,80002216 <main+0x198>
80002244:	098a8593          	addi	a1,s5,152
80002248:	04c00613          	li	a2,76
8000224c:	1088                	addi	a0,sp,96
8000224e:	465020ef          	jal	ra,80004eb2 <memcpy>
80002252:	4705                	li	a4,1
80002254:	02000693          	li	a3,32
80002258:	4609                	li	a2,2
8000225a:	108c                	addi	a1,sp,96
8000225c:	c7418513          	addi	a0,gp,-908 # 80005634 <sensorMCP>
80002260:	80005ab7          	lui	s5,0x80005
80002264:	8b0ff0ef          	jal	ra,80001314 <MCP_setup>
80002268:	4481                	li	s1,0
8000226a:	1b0a8a93          	addi	s5,s5,432 # 800051b0 <__stack_top+0xffffb200>
8000226e:	80007b37          	lui	s6,0x80007
80002272:	4ba1                	li	s7,8
80002274:	009a87b3          	add	a5,s5,s1
80002278:	0007c583          	lbu	a1,0(a5)
8000227c:	4601                	li	a2,0
8000227e:	804b0513          	addi	a0,s6,-2044 # 80006804 <__stack_top+0xffffc854>
80002282:	0485                	addi	s1,s1,1
80002284:	934ff0ef          	jal	ra,800013b8 <MCP_pinMode>
80002288:	ff7496e3          	bne	s1,s7,80002274 <main+0x1f6>
8000228c:	4481                	li	s1,0
8000228e:	03000a93          	li	s5,48
80002292:	0044d513          	srli	a0,s1,0x4
80002296:	00950793          	addi	a5,a0,9 # 70008009 <RAM_SIZE+0x6ffe8009>
8000229a:	00179513          	slli	a0,a5,0x1
8000229e:	953e                	add	a0,a0,a5
800022a0:	050a                	slli	a0,a0,0x2
800022a2:	953e                	add	a0,a0,a5
800022a4:	00f4f593          	andi	a1,s1,15
800022a8:	050e                	slli	a0,a0,0x3
800022aa:	0485                	addi	s1,s1,1
800022ac:	4601                	li	a2,0
800022ae:	0585                	addi	a1,a1,1
800022b0:	9562                	add	a0,a0,s8
800022b2:	0ff4f493          	andi	s1,s1,255
800022b6:	902ff0ef          	jal	ra,800013b8 <MCP_pinMode>
800022ba:	fd549ce3          	bne	s1,s5,80002292 <main+0x214>
800022be:	4481                	li	s1,0
800022c0:	03000a93          	li	s5,48
800022c4:	0044d513          	srli	a0,s1,0x4
800022c8:	00950793          	addi	a5,a0,9
800022cc:	00179513          	slli	a0,a5,0x1
800022d0:	953e                	add	a0,a0,a5
800022d2:	050a                	slli	a0,a0,0x2
800022d4:	953e                	add	a0,a0,a5
800022d6:	00f4f593          	andi	a1,s1,15
800022da:	050e                	slli	a0,a0,0x3
800022dc:	0485                	addi	s1,s1,1
800022de:	4601                	li	a2,0
800022e0:	0585                	addi	a1,a1,1
800022e2:	9562                	add	a0,a0,s8
800022e4:	0ff4f493          	andi	s1,s1,255
800022e8:	954ff0ef          	jal	ra,8000143c <MCP_pinWrite>
800022ec:	fd549ce3          	bne	s1,s5,800022c4 <main+0x246>
800022f0:	80006ab7          	lui	s5,0x80006
800022f4:	c24a8493          	addi	s1,s5,-988 # 80005c24 <__stack_top+0xffffbc74>
800022f8:	4c81                	li	s9,0
800022fa:	c24a8a93          	addi	s5,s5,-988
800022fe:	80007b37          	lui	s6,0x80007
80002302:	80007bb7          	lui	s7,0x80007
80002306:	80007c37          	lui	s8,0x80007
8000230a:	80007d37          	lui	s10,0x80007
8000230e:	80006db7          	lui	s11,0x80006
80002312:	47b5                	li	a5,13
80002314:	4597e863          	bltu	a5,s9,80002764 <main+0x6e6>
80002318:	003c8613          	addi	a2,s9,3
8000231c:	4805                	li	a6,1
8000231e:	73440793          	addi	a5,s0,1844
80002322:	4709                	li	a4,2
80002324:	73440693          	addi	a3,s0,1844
80002328:	0ff67613          	andi	a2,a2,255
8000232c:	73440593          	addi	a1,s0,1844
80002330:	8526                	mv	a0,s1
80002332:	e45fe0ef          	jal	ra,80001176 <LTC2634_setup>
80002336:	001c8893          	addi	a7,s9,1
8000233a:	0ff8fc93          	andi	s9,a7,255
8000233e:	06000793          	li	a5,96
80002342:	04c1                	addi	s1,s1,16
80002344:	fcfc97e3          	bne	s9,a5,80002312 <main+0x294>
80002348:	80006bb7          	lui	s7,0x80006
8000234c:	73440793          	addi	a5,s0,1844
80002350:	73440693          	addi	a3,s0,1844
80002354:	4805                	li	a6,1
80002356:	4709                	li	a4,2
80002358:	4631                	li	a2,12
8000235a:	79cb8593          	addi	a1,s7,1948 # 8000679c <__stack_top+0xffffc7ec>
8000235e:	cf418513          	addi	a0,gp,-780 # 800056b4 <caldac0>
80002362:	e15fe0ef          	jal	ra,80001176 <LTC2634_setup>
80002366:	73440793          	addi	a5,s0,1844
8000236a:	73440693          	addi	a3,s0,1844
8000236e:	4805                	li	a6,1
80002370:	4709                	li	a4,2
80002372:	4635                	li	a2,13
80002374:	79cb8593          	addi	a1,s7,1948
80002378:	c5818513          	addi	a0,gp,-936 # 80005618 <caldac1>
8000237c:	dfbfe0ef          	jal	ra,80001176 <LTC2634_setup>
80002380:	8f018793          	addi	a5,gp,-1808 # 800052b0 <default_gains_cal>
80002384:	d43e                	sw	a5,40(sp)
80002386:	a7018793          	addi	a5,gp,-1424 # 80005430 <default_threshs_cal>
8000238a:	d63e                	sw	a5,44(sp)
8000238c:	9b018793          	addi	a5,gp,-1616 # 80005370 <default_gains_hv>
80002390:	d83e                	sw	a5,48(sp)
80002392:	80006b37          	lui	s6,0x80006
80002396:	b3018793          	addi	a5,gp,-1232 # 800054f0 <default_threshs_hv>
8000239a:	2a0b0b13          	addi	s6,s6,672 # 800062a0 <__stack_top+0xffffc2f0>
8000239e:	d0418493          	addi	s1,gp,-764 # 800056c4 <strawsHV>
800023a2:	4401                	li	s0,0
800023a4:	4c01                	li	s8,0
800023a6:	de6a                	sw	s10,60(sp)
800023a8:	c0e6                	sw	s9,64(sp)
800023aa:	da3e                	sw	a5,52(sp)
800023ac:	001c5793          	srli	a5,s8,0x1
800023b0:	0792                	slli	a5,a5,0x4
800023b2:	00fa8533          	add	a0,s5,a5
800023b6:	30078793          	addi	a5,a5,768
800023ba:	97d6                	add	a5,a5,s5
800023bc:	c09c                	sw	a5,0(s1)
800023be:	00ab2023          	sw	a0,0(s6)
800023c2:	001c7793          	andi	a5,s8,1
800023c6:	48078563          	beqz	a5,80002850 <main+0x7d2>
800023ca:	4785                	li	a5,1
800023cc:	00fb0223          	sb	a5,4(s6)
800023d0:	4789                	li	a5,2
800023d2:	00fb02a3          	sb	a5,5(s6)
800023d6:	00048223          	sb	zero,4(s1)
800023da:	00f482a3          	sb	a5,5(s1)
800023de:	57a2                	lw	a5,40(sp)
800023e0:	005b4583          	lbu	a1,5(s6)
800023e4:	0c05                	addi	s8,s8,1
800023e6:	97a2                	add	a5,a5,s0
800023e8:	0007d603          	lhu	a2,0(a5)
800023ec:	0ffc7c13          	andi	s8,s8,255
800023f0:	0b21                	addi	s6,s6,8
800023f2:	e4ffe0ef          	jal	ra,80001240 <LTC2634_write>
800023f6:	57b2                	lw	a5,44(sp)
800023f8:	ffcb4583          	lbu	a1,-4(s6)
800023fc:	ff8b2503          	lw	a0,-8(s6)
80002400:	97a2                	add	a5,a5,s0
80002402:	0007d603          	lhu	a2,0(a5)
80002406:	04a1                	addi	s1,s1,8
80002408:	e39fe0ef          	jal	ra,80001240 <LTC2634_write>
8000240c:	57c2                	lw	a5,48(sp)
8000240e:	ffd4c583          	lbu	a1,-3(s1)
80002412:	ff84a503          	lw	a0,-8(s1)
80002416:	97a2                	add	a5,a5,s0
80002418:	0007d603          	lhu	a2,0(a5)
8000241c:	e25fe0ef          	jal	ra,80001240 <LTC2634_write>
80002420:	57d2                	lw	a5,52(sp)
80002422:	ffc4c583          	lbu	a1,-4(s1)
80002426:	ff84a503          	lw	a0,-8(s1)
8000242a:	97a2                	add	a5,a5,s0
8000242c:	0007d603          	lhu	a2,0(a5)
80002430:	0409                	addi	s0,s0,2
80002432:	e0ffe0ef          	jal	ra,80001240 <LTC2634_write>
80002436:	06000793          	li	a5,96
8000243a:	f6fc19e3          	bne	s8,a5,800023ac <main+0x32e>
8000243e:	4601                	li	a2,0
80002440:	4585                	li	a1,1
80002442:	4541                	li	a0,16
80002444:	4e3010ef          	jal	ra,80004126 <digi_write>
80002448:	4601                	li	a2,0
8000244a:	4581                	li	a1,0
8000244c:	08100513          	li	a0,129
80002450:	4d7010ef          	jal	ra,80004126 <digi_write>
80002454:	65c1                	lui	a1,0x10
80002456:	4601                	li	a2,0
80002458:	15ed                	addi	a1,a1,-5
8000245a:	08200513          	li	a0,130
8000245e:	4c9010ef          	jal	ra,80004126 <digi_write>
80002462:	cdc1a703          	lw	a4,-804(gp) # 8000569c <registers_0_addr>
80002466:	4405                	li	s0,1
80002468:	6785                	lui	a5,0x1
8000246a:	20872823          	sw	s0,528(a4)
8000246e:	17fd                	addi	a5,a5,-1
80002470:	20f72a23          	sw	a5,532(a4)
80002474:	4605                	li	a2,1
80002476:	4581                	li	a1,0
80002478:	09000513          	li	a0,144
8000247c:	4ab010ef          	jal	ra,80004126 <digi_write>
80002480:	4609                	li	a2,2
80002482:	4585                	li	a1,1
80002484:	09000513          	li	a0,144
80002488:	49f010ef          	jal	ra,80004126 <digi_write>
8000248c:	cdc1a783          	lw	a5,-804(gp) # 8000569c <registers_0_addr>
80002490:	473d                	li	a4,15
80002492:	80006ab7          	lui	s5,0x80006
80002496:	2ce7a823          	sw	a4,720(a5) # 12d0 <HEAP_SIZE+0x2d0>
8000249a:	c7418893          	addi	a7,gp,-908 # 80005634 <sensorMCP>
8000249e:	c7418793          	addi	a5,gp,-908 # 80005634 <sensorMCP>
800024a2:	4811                	li	a6,4
800024a4:	c7418693          	addi	a3,gp,-908 # 80005634 <sensorMCP>
800024a8:	c7418593          	addi	a1,gp,-908 # 80005634 <sensorMCP>
800024ac:	80008b37          	lui	s6,0x80008
800024b0:	c022                	sw	s0,0(sp)
800024b2:	4709                	li	a4,2
800024b4:	460d                	li	a2,3
800024b6:	28ca8513          	addi	a0,s5,652 # 8000628c <__stack_top+0xffffc2dc>
800024ba:	80006437          	lui	s0,0x80006
800024be:	580b2e23          	sw	zero,1436(s6) # 8000859c <__stack_top+0xffffe5ec>
800024c2:	8a6ff0ef          	jal	ra,80001568 <SPI_daisy_setup>
800024c6:	c7418693          	addi	a3,gp,-908 # 80005634 <sensorMCP>
800024ca:	c7418593          	addi	a1,gp,-908 # 80005634 <sensorMCP>
800024ce:	23040513          	addi	a0,s0,560 # 80006230 <__stack_top+0xffffc280>
800024d2:	471d                	li	a4,7
800024d4:	4619                	li	a2,6
800024d6:	ad3fe0ef          	jal	ra,80000fa8 <I2C_setup>
800024da:	47ad                	li	a5,11
800024dc:	79cb8893          	addi	a7,s7,1948
800024e0:	79cb8693          	addi	a3,s7,1948
800024e4:	79cb8593          	addi	a1,s7,1948
800024e8:	25018513          	addi	a0,gp,592 # 80005c10 <spi_ambtemp_cal>
800024ec:	c03e                	sw	a5,0(sp)
800024ee:	483d                	li	a6,15
800024f0:	79cb8793          	addi	a5,s7,1948
800024f4:	4739                	li	a4,14
800024f6:	4641                	li	a2,16
800024f8:	870ff0ef          	jal	ra,80001568 <SPI_daisy_setup>
800024fc:	800075b7          	lui	a1,0x80007
80002500:	47c1                	li	a5,16
80002502:	800078b7          	lui	a7,0x80007
80002506:	9a458693          	addi	a3,a1,-1628 # 800069a4 <__stack_top+0xffffc9f4>
8000250a:	a7488893          	addi	a7,a7,-1420 # 80006a74 <__stack_top+0xffffcac4>
8000250e:	4839                	li	a6,14
80002510:	473d                	li	a4,15
80002512:	4635                	li	a2,13
80002514:	c03e                	sw	a5,0(sp)
80002516:	ce018513          	addi	a0,gp,-800 # 800056a0 <spi_ambtemp_hv>
8000251a:	9a458793          	addi	a5,a1,-1628
8000251e:	9a458593          	addi	a1,a1,-1628
80002522:	846ff0ef          	jal	ra,80001568 <SPI_daisy_setup>
80002526:	28ca8513          	addi	a0,s5,652
8000252a:	a17ff0ef          	jal	ra,80001f40 <bme280_init_settings>
8000252e:	23040613          	addi	a2,s0,560
80002532:	04000593          	li	a1,64
80002536:	01e8                	addi	a0,sp,204
80002538:	a19fe0ef          	jal	ra,80000f50 <hdc2080_setup>
8000253c:	800057b7          	lui	a5,0x80005
80002540:	0b478493          	addi	s1,a5,180 # 800050b4 <__stack_top+0xffffb104>
80002544:	0b478793          	addi	a5,a5,180
80002548:	c6ca                	sw	s2,76(sp)
8000254a:	4401                	li	s0,0
8000254c:	ca5a                	sw	s6,20(sp)
8000254e:	c2d6                	sw	s5,68(sp)
80002550:	c8de                	sw	s7,80(sp)
80002552:	cabe                	sw	a5,84(sp)
80002554:	4911                	li	s2,4
80002556:	57f2                	lw	a5,60(sp)
80002558:	0004d603          	lhu	a2,0(s1)
8000255c:	85a2                	mv	a1,s0
8000255e:	cf418513          	addi	a0,gp,-780 # 800056b4 <caldac0>
80002562:	cdffe0ef          	jal	ra,80001240 <LTC2634_write>
80002566:	4786                	lw	a5,64(sp)
80002568:	0084d603          	lhu	a2,8(s1)
8000256c:	85a2                	mv	a1,s0
8000256e:	0405                	addi	s0,s0,1
80002570:	c5818513          	addi	a0,gp,-936 # 80005618 <caldac1>
80002574:	0ff47413          	andi	s0,s0,255
80002578:	cc9fe0ef          	jal	ra,80001240 <LTC2634_write>
8000257c:	0489                	addi	s1,s1,2
8000257e:	fd241ce3          	bne	s0,s2,80002556 <main+0x4d8>
80002582:	76e020ef          	jal	ra,80004cf0 <init_DIGIs>
80002586:	4585                	li	a1,1
80002588:	0c000513          	li	a0,192
8000258c:	3ff010ef          	jal	ra,8000418a <digi_read>
80002590:	3ff57513          	andi	a0,a0,1023
80002594:	04700793          	li	a5,71
80002598:	2cf50563          	beq	a0,a5,80002862 <main+0x7e4>
8000259c:	800055b7          	lui	a1,0x80005
800025a0:	0d458593          	addi	a1,a1,212 # 800050d4 <__stack_top+0xffffb124>
800025a4:	47c2                	lw	a5,16(sp)
800025a6:	c9078513          	addi	a0,a5,-880
800025aa:	eb9fd0ef          	jal	ra,80000462 <UART_polled_tx_string>
800025ae:	4589                	li	a1,2
800025b0:	0c000513          	li	a0,192
800025b4:	3d7010ef          	jal	ra,8000418a <digi_read>
800025b8:	3ff57513          	andi	a0,a0,1023
800025bc:	04700793          	li	a5,71
800025c0:	2af50663          	beq	a0,a5,8000286c <main+0x7ee>
800025c4:	800055b7          	lui	a1,0x80005
800025c8:	0ec58593          	addi	a1,a1,236 # 800050ec <__stack_top+0xffffb13c>
800025cc:	47c2                	lw	a5,16(sp)
800025ce:	c9078513          	addi	a0,a5,-880
800025d2:	e91fd0ef          	jal	ra,80000462 <UART_polled_tx_string>
800025d6:	cdc1a783          	lw	a5,-804(gp) # 8000569c <registers_0_addr>
800025da:	3087a403          	lw	s0,776(a5)
800025de:	47c5                	li	a5,17
800025e0:	0ff47713          	andi	a4,s0,255
800025e4:	28f70963          	beq	a4,a5,80002876 <main+0x7f8>
800025e8:	800055b7          	lui	a1,0x80005
800025ec:	10458593          	addi	a1,a1,260 # 80005104 <__stack_top+0xffffb154>
800025f0:	47c2                	lw	a5,16(sp)
800025f2:	c9078513          	addi	a0,a5,-880
800025f6:	e6dfd0ef          	jal	ra,80000462 <UART_polled_tx_string>
800025fa:	67c1                	lui	a5,0x10
800025fc:	f0078793          	addi	a5,a5,-256 # ff00 <HEAP_SIZE+0xef00>
80002600:	8c7d                	and	s0,s0,a5
80002602:	6785                	lui	a5,0x1
80002604:	10078793          	addi	a5,a5,256 # 1100 <HEAP_SIZE+0x100>
80002608:	26f40c63          	beq	s0,a5,80002880 <main+0x802>
8000260c:	800055b7          	lui	a1,0x80005
80002610:	11c58593          	addi	a1,a1,284 # 8000511c <__stack_top+0xffffb16c>
80002614:	47c2                	lw	a5,16(sp)
80002616:	c9078513          	addi	a0,a5,-880
8000261a:	e49fd0ef          	jal	ra,80000462 <UART_polled_tx_string>
8000261e:	cdc1a703          	lw	a4,-804(gp) # 8000569c <registers_0_addr>
80002622:	6785                	lui	a5,0x1
80002624:	3fd78793          	addi	a5,a5,1021 # 13fd <HEAP_SIZE+0x3fd>
80002628:	20f72423          	sw	a5,520(a4)
8000262c:	47c2                	lw	a5,16(sp)
8000262e:	800055b7          	lui	a1,0x80005
80002632:	13458593          	addi	a1,a1,308 # 80005134 <__stack_top+0xffffb184>
80002636:	c9078513          	addi	a0,a5,-880
8000263a:	e29fd0ef          	jal	ra,80000462 <UART_polled_tx_string>
8000263e:	4601                	li	a2,0
80002640:	4581                	li	a1,0
80002642:	c14a0513          	addi	a0,s4,-1004
80002646:	e42fe0ef          	jal	ra,80000c88 <GPIO_set_output>
8000264a:	4601                	li	a2,0
8000264c:	4585                	li	a1,1
8000264e:	c14a0513          	addi	a0,s4,-1004
80002652:	e36fe0ef          	jal	ra,80000c88 <GPIO_set_output>
80002656:	4785                	li	a5,1
80002658:	ce3e                	sw	a5,28(sp)
8000265a:	89018793          	addi	a5,gp,-1904 # 80005250 <channel_map>
8000265e:	cc02                	sw	zero,24(sp)
80002660:	cebe                	sw	a5,92(sp)
80002662:	4505                	li	a0,1
80002664:	255010ef          	jal	ra,800040b8 <delayUs>
80002668:	47e2                	lw	a5,24(sp)
8000266a:	06400613          	li	a2,100
8000266e:	0785                	addi	a5,a5,1
80002670:	07c2                	slli	a5,a5,0x10
80002672:	83c1                	srli	a5,a5,0x10
80002674:	cc3e                	sw	a5,24(sp)
80002676:	800077b7          	lui	a5,0x80007
8000267a:	c1c78593          	addi	a1,a5,-996 # 80006c1c <__stack_top+0xffffcc6c>
8000267e:	47c2                	lw	a5,16(sp)
80002680:	c9078513          	addi	a0,a5,-880
80002684:	d9dfd0ef          	jal	ra,80000420 <UART_get_rx>
80002688:	47d2                	lw	a5,20(sp)
8000268a:	80007737          	lui	a4,0x80007
8000268e:	4681                	li	a3,0
80002690:	59c7a603          	lw	a2,1436(a5)
80002694:	cb870593          	addi	a1,a4,-840 # 80006cb8 <__stack_top+0xffffcd08>
80002698:	4781                	li	a5,0
8000269a:	00f60733          	add	a4,a2,a5
8000269e:	1ea79663          	bne	a5,a0,8000288a <main+0x80c>
800026a2:	c681                	beqz	a3,800026aa <main+0x62c>
800026a4:	47d2                	lw	a5,20(sp)
800026a6:	58e7ae23          	sw	a4,1436(a5)
800026aa:	47d2                	lw	a5,20(sp)
800026ac:	59c7a703          	lw	a4,1436(a5)
800026b0:	478d                	li	a5,3
800026b2:	02e7ff63          	bgeu	a5,a4,800026f0 <main+0x672>
800026b6:	800075b7          	lui	a1,0x80007
800026ba:	cb85c683          	lbu	a3,-840(a1) # 80006cb8 <__stack_top+0xffffcd08>
800026be:	0aa00613          	li	a2,170
800026c2:	00c69a63          	bne	a3,a2,800026d6 <main+0x658>
800026c6:	cb858613          	addi	a2,a1,-840
800026ca:	00164603          	lbu	a2,1(a2)
800026ce:	cb858413          	addi	s0,a1,-840
800026d2:	1cd60963          	beq	a2,a3,800028a4 <main+0x826>
800026d6:	47d2                	lw	a5,20(sp)
800026d8:	800055b7          	lui	a1,0x80005
800026dc:	80007537          	lui	a0,0x80007
800026e0:	15058593          	addi	a1,a1,336 # 80005150 <__stack_top+0xffffb1a0>
800026e4:	c9050513          	addi	a0,a0,-880 # 80006c90 <__stack_top+0xffffcce0>
800026e8:	5807ae23          	sw	zero,1436(a5)
800026ec:	d77fd0ef          	jal	ra,80000462 <UART_polled_tx_string>
800026f0:	4762                	lw	a4,24(sp)
800026f2:	6795                	lui	a5,0x5
800026f4:	e2078793          	addi	a5,a5,-480 # 4e20 <HEAP_SIZE+0x3e20>
800026f8:	f6f715e3          	bne	a4,a5,80002662 <main+0x5e4>
800026fc:	47f2                	lw	a5,28(sp)
800026fe:	80007537          	lui	a0,0x80007
80002702:	4581                	li	a1,0
80002704:	0017c793          	xori	a5,a5,1
80002708:	863e                	mv	a2,a5
8000270a:	c1450513          	addi	a0,a0,-1004 # 80006c14 <__stack_top+0xffffcc64>
8000270e:	ce3e                	sw	a5,28(sp)
80002710:	d78fe0ef          	jal	ra,80000c88 <GPIO_set_output>
80002714:	cc02                	sw	zero,24(sp)
80002716:	b7b1                	j	80002662 <main+0x5e4>
80002718:	47c2                	lw	a5,16(sp)
8000271a:	800055b7          	lui	a1,0x80005
8000271e:	0c458593          	addi	a1,a1,196 # 800050c4 <__stack_top+0xffffb114>
80002722:	c9078513          	addi	a0,a5,-880
80002726:	d3dfd0ef          	jal	ra,80000462 <UART_polled_tx_string>
8000272a:	b2f5                	j	80002116 <main+0x98>
8000272c:	47c2                	lw	a5,16(sp)
8000272e:	800055b7          	lui	a1,0x80005
80002732:	0cc58593          	addi	a1,a1,204 # 800050cc <__stack_top+0xffffb11c>
80002736:	c9078513          	addi	a0,a5,-880
8000273a:	d29fd0ef          	jal	ra,80000462 <UART_polled_tx_string>
8000273e:	b421                	j	80002146 <main+0xc8>
80002740:	85ca                	mv	a1,s2
80002742:	1088                	addi	a0,sp,96
80002744:	009dc763          	blt	s11,s1,80002752 <main+0x6d4>
80002748:	76a020ef          	jal	ra,80004eb2 <memcpy>
8000274c:	01b48693          	addi	a3,s1,27
80002750:	bce9                	j	8000222a <main+0x1ac>
80002752:	760020ef          	jal	ra,80004eb2 <memcpy>
80002756:	01748693          	addi	a3,s1,23
8000275a:	4701                	li	a4,0
8000275c:	0ff6f693          	andi	a3,a3,255
80002760:	4605                	li	a2,1
80002762:	bcc1                	j	80002232 <main+0x1b4>
80002764:	47dd                	li	a5,23
80002766:	0197ef63          	bltu	a5,s9,80002784 <main+0x706>
8000276a:	ff3c8613          	addi	a2,s9,-13
8000276e:	4805                	li	a6,1
80002770:	73440793          	addi	a5,s0,1844
80002774:	4709                	li	a4,2
80002776:	73440693          	addi	a3,s0,1844
8000277a:	0ff67613          	andi	a2,a2,255
8000277e:	79cd8593          	addi	a1,s11,1948 # 8000679c <__stack_top+0xffffc7ec>
80002782:	b67d                	j	80002330 <main+0x2b2>
80002784:	02500793          	li	a5,37
80002788:	0197ef63          	bltu	a5,s9,800027a6 <main+0x728>
8000278c:	febc8613          	addi	a2,s9,-21
80002790:	4805                	li	a6,1
80002792:	86cc0793          	addi	a5,s8,-1940 # 8000686c <__stack_top+0xffffc8bc>
80002796:	4709                	li	a4,2
80002798:	86cc0693          	addi	a3,s8,-1940
8000279c:	0ff67613          	andi	a2,a2,255
800027a0:	86cc0593          	addi	a1,s8,-1940
800027a4:	b671                	j	80002330 <main+0x2b2>
800027a6:	02f00793          	li	a5,47
800027aa:	0197ef63          	bltu	a5,s9,800027c8 <main+0x74a>
800027ae:	fdbc8613          	addi	a2,s9,-37
800027b2:	4805                	li	a6,1
800027b4:	86cc0793          	addi	a5,s8,-1940
800027b8:	4709                	li	a4,2
800027ba:	86cc0693          	addi	a3,s8,-1940
800027be:	0ff67613          	andi	a2,a2,255
800027c2:	8d4d0593          	addi	a1,s10,-1836 # 800068d4 <__stack_top+0xffffc924>
800027c6:	b6ad                	j	80002330 <main+0x2b2>
800027c8:	03d00793          	li	a5,61
800027cc:	0197ef63          	bltu	a5,s9,800027ea <main+0x76c>
800027d0:	fd3c8613          	addi	a2,s9,-45
800027d4:	4805                	li	a6,1
800027d6:	93cb8793          	addi	a5,s7,-1732
800027da:	4709                	li	a4,2
800027dc:	93cb8693          	addi	a3,s7,-1732
800027e0:	0ff67613          	andi	a2,a2,255
800027e4:	93cb8593          	addi	a1,s7,-1732
800027e8:	b6a1                	j	80002330 <main+0x2b2>
800027ea:	04700793          	li	a5,71
800027ee:	0397e163          	bltu	a5,s9,80002810 <main+0x792>
800027f2:	fc3c8613          	addi	a2,s9,-61
800027f6:	800075b7          	lui	a1,0x80007
800027fa:	4805                	li	a6,1
800027fc:	93cb8793          	addi	a5,s7,-1732
80002800:	4709                	li	a4,2
80002802:	93cb8693          	addi	a3,s7,-1732
80002806:	0ff67613          	andi	a2,a2,255
8000280a:	9a458593          	addi	a1,a1,-1628 # 800069a4 <__stack_top+0xffffc9f4>
8000280e:	b60d                	j	80002330 <main+0x2b2>
80002810:	05500793          	li	a5,85
80002814:	0197ef63          	bltu	a5,s9,80002832 <main+0x7b4>
80002818:	fbbc8613          	addi	a2,s9,-69
8000281c:	4805                	li	a6,1
8000281e:	a0cb0793          	addi	a5,s6,-1524
80002822:	4709                	li	a4,2
80002824:	a0cb0693          	addi	a3,s6,-1524
80002828:	0ff67613          	andi	a2,a2,255
8000282c:	a0cb0593          	addi	a1,s6,-1524
80002830:	b601                	j	80002330 <main+0x2b2>
80002832:	fabc8613          	addi	a2,s9,-85
80002836:	800075b7          	lui	a1,0x80007
8000283a:	4805                	li	a6,1
8000283c:	a0cb0793          	addi	a5,s6,-1524
80002840:	4709                	li	a4,2
80002842:	a0cb0693          	addi	a3,s6,-1524
80002846:	0ff67613          	andi	a2,a2,255
8000284a:	a7458593          	addi	a1,a1,-1420 # 80006a74 <__stack_top+0xffffcac4>
8000284e:	b4cd                	j	80002330 <main+0x2b2>
80002850:	478d                	li	a5,3
80002852:	4705                	li	a4,1
80002854:	000b0223          	sb	zero,4(s6)
80002858:	00fb02a3          	sb	a5,5(s6)
8000285c:	00e48223          	sb	a4,4(s1)
80002860:	bead                	j	800023da <main+0x35c>
80002862:	800055b7          	lui	a1,0x80005
80002866:	0e058593          	addi	a1,a1,224 # 800050e0 <__stack_top+0xffffb130>
8000286a:	bb2d                	j	800025a4 <main+0x526>
8000286c:	800055b7          	lui	a1,0x80005
80002870:	0f858593          	addi	a1,a1,248 # 800050f8 <__stack_top+0xffffb148>
80002874:	bba1                	j	800025cc <main+0x54e>
80002876:	800055b7          	lui	a1,0x80005
8000287a:	11058593          	addi	a1,a1,272 # 80005110 <__stack_top+0xffffb160>
8000287e:	bb8d                	j	800025f0 <main+0x572>
80002880:	800055b7          	lui	a1,0x80005
80002884:	12858593          	addi	a1,a1,296 # 80005128 <__stack_top+0xffffb178>
80002888:	b371                	j	80002614 <main+0x596>
8000288a:	800076b7          	lui	a3,0x80007
8000288e:	c1c68693          	addi	a3,a3,-996 # 80006c1c <__stack_top+0xffffcc6c>
80002892:	96be                	add	a3,a3,a5
80002894:	0006c683          	lbu	a3,0(a3)
80002898:	972e                	add	a4,a4,a1
8000289a:	0785                	addi	a5,a5,1
8000289c:	00d70023          	sb	a3,0(a4)
800028a0:	4685                	li	a3,1
800028a2:	bbe5                	j	8000269a <main+0x61c>
800028a4:	00244683          	lbu	a3,2(s0)
800028a8:	d036                	sw	a3,32(sp)
800028aa:	e4d763e3          	bltu	a4,a3,800026f0 <main+0x672>
800028ae:	00344b03          	lbu	s6,3(s0)
800028b2:	80007937          	lui	s2,0x80007
800028b6:	ca091b23          	sh	zero,-842(s2) # 80006cb6 <__stack_top+0xffffcd06>
800028ba:	4705                	li	a4,1
800028bc:	84ca                	mv	s1,s2
800028be:	0aeb1463          	bne	s6,a4,80002966 <main+0x8e8>
800028c2:	80007537          	lui	a0,0x80007
800028c6:	cbc50513          	addi	a0,a0,-836 # 80006cbc <__stack_top+0xffffcd0c>
800028ca:	788010ef          	jal	ra,80004052 <readU16fromBytes>
800028ce:	84aa                	mv	s1,a0
800028d0:	80007537          	lui	a0,0x80007
800028d4:	cbe50513          	addi	a0,a0,-834 # 80006cbe <__stack_top+0xffffcd0e>
800028d8:	77a010ef          	jal	ra,80004052 <readU16fromBytes>
800028dc:	8a2a                	mv	s4,a0
800028de:	85aa                	mv	a1,a0
800028e0:	8526                	mv	a0,s1
800028e2:	35a020ef          	jal	ra,80004c3c <setPreampGain>
800028e6:	cb695783          	lhu	a5,-842(s2)
800028ea:	800089b7          	lui	s3,0x80008
800028ee:	4689                	li	a3,2
800028f0:	00178713          	addi	a4,a5,1
800028f4:	cae91b23          	sh	a4,-842(s2)
800028f8:	dc898713          	addi	a4,s3,-568 # 80007dc8 <__stack_top+0xffffde18>
800028fc:	97ba                	add	a5,a5,a4
800028fe:	4611                	li	a2,4
80002900:	cb690593          	addi	a1,s2,-842
80002904:	dc898513          	addi	a0,s3,-568
80002908:	01678023          	sb	s6,0(a5)
8000290c:	3d5010ef          	jal	ra,800044e0 <bufWrite>
80002910:	4689                	li	a3,2
80002912:	8626                	mv	a2,s1
80002914:	cb690593          	addi	a1,s2,-842
80002918:	dc898513          	addi	a0,s3,-568
8000291c:	3c5010ef          	jal	ra,800044e0 <bufWrite>
80002920:	4689                	li	a3,2
80002922:	8652                	mv	a2,s4
80002924:	cb690593          	addi	a1,s2,-842
80002928:	dc898513          	addi	a0,s3,-568
8000292c:	3b5010ef          	jal	ra,800044e0 <bufWrite>
80002930:	cb695683          	lhu	a3,-842(s2)
80002934:	800077b7          	lui	a5,0x80007
80002938:	dc898613          	addi	a2,s3,-568
8000293c:	c907a503          	lw	a0,-880(a5) # 80006c90 <__stack_top+0xffffcce0>
80002940:	c9078793          	addi	a5,a5,-880
80002944:	43cc                	lw	a1,4(a5)
80002946:	28c020ef          	jal	ra,80004bd2 <outBufSend>
8000294a:	47d2                	lw	a5,20(sp)
8000294c:	59c7a703          	lw	a4,1436(a5)
80002950:	5782                	lw	a5,32(sp)
80002952:	8f1d                	sub	a4,a4,a5
80002954:	4781                	li	a5,0
80002956:	00e7f463          	bgeu	a5,a4,8000295e <main+0x8e0>
8000295a:	6dc0106f          	j	80004036 <main+0x1fb8>
8000295e:	47d2                	lw	a5,20(sp)
80002960:	58e7ae23          	sw	a4,1436(a5)
80002964:	b371                	j	800026f0 <main+0x672>
80002966:	4709                	li	a4,2
80002968:	02eb1563          	bne	s6,a4,80002992 <main+0x914>
8000296c:	80007537          	lui	a0,0x80007
80002970:	cbc50513          	addi	a0,a0,-836 # 80006cbc <__stack_top+0xffffcd0c>
80002974:	6de010ef          	jal	ra,80004052 <readU16fromBytes>
80002978:	84aa                	mv	s1,a0
8000297a:	80007537          	lui	a0,0x80007
8000297e:	cbe50513          	addi	a0,a0,-834 # 80006cbe <__stack_top+0xffffcd0e>
80002982:	6d0010ef          	jal	ra,80004052 <readU16fromBytes>
80002986:	8a2a                	mv	s4,a0
80002988:	85aa                	mv	a1,a0
8000298a:	8526                	mv	a0,s1
8000298c:	30a020ef          	jal	ra,80004c96 <setPreampThreshold>
80002990:	bf99                	j	800028e6 <main+0x868>
80002992:	0afb1963          	bne	s6,a5,80002a44 <main+0x9c6>
80002996:	80007537          	lui	a0,0x80007
8000299a:	cbd50513          	addi	a0,a0,-835 # 80006cbd <__stack_top+0xffffcd0d>
8000299e:	00444903          	lbu	s2,4(s0)
800029a2:	6b0010ef          	jal	ra,80004052 <readU16fromBytes>
800029a6:	89aa                	mv	s3,a0
800029a8:	4b01                	li	s6,0
800029aa:	4a8d                	li	s5,3
800029ac:	4a21                	li	s4,8
800029ae:	416957b3          	sra	a5,s2,s6
800029b2:	8b85                	andi	a5,a5,1
800029b4:	0ffb7593          	andi	a1,s6,255
800029b8:	cf91                	beqz	a5,800029d4 <main+0x956>
800029ba:	4756                	lw	a4,84(sp)
800029bc:	001b1793          	slli	a5,s6,0x1
800029c0:	97ba                	add	a5,a5,a4
800029c2:	0007d603          	lhu	a2,0(a5)
800029c6:	076ae863          	bltu	s5,s6,80002a36 <main+0x9b8>
800029ca:	57f2                	lw	a5,60(sp)
800029cc:	cf418513          	addi	a0,gp,-780 # 800056b4 <caldac0>
800029d0:	871fe0ef          	jal	ra,80001240 <LTC2634_write>
800029d4:	0b05                	addi	s6,s6,1
800029d6:	fd4b1ce3          	bne	s6,s4,800029ae <main+0x930>
800029da:	cb64d703          	lhu	a4,-842(s1)
800029de:	80008a37          	lui	s4,0x80008
800029e2:	dc8a0a93          	addi	s5,s4,-568 # 80007dc8 <__stack_top+0xffffde18>
800029e6:	00170793          	addi	a5,a4,1
800029ea:	caf49b23          	sh	a5,-842(s1)
800029ee:	9756                	add	a4,a4,s5
800029f0:	478d                	li	a5,3
800029f2:	4689                	li	a3,2
800029f4:	460d                	li	a2,3
800029f6:	cb648593          	addi	a1,s1,-842
800029fa:	dc8a0513          	addi	a0,s4,-568
800029fe:	00f70023          	sb	a5,0(a4)
80002a02:	2df010ef          	jal	ra,800044e0 <bufWrite>
80002a06:	cb64d783          	lhu	a5,-842(s1)
80002a0a:	4689                	li	a3,2
80002a0c:	864e                	mv	a2,s3
80002a0e:	00178713          	addi	a4,a5,1
80002a12:	97d6                	add	a5,a5,s5
80002a14:	cae49b23          	sh	a4,-842(s1)
80002a18:	01278023          	sb	s2,0(a5)
80002a1c:	cb648593          	addi	a1,s1,-842
80002a20:	dc8a0513          	addi	a0,s4,-568
80002a24:	2bd010ef          	jal	ra,800044e0 <bufWrite>
80002a28:	800077b7          	lui	a5,0x80007
80002a2c:	cb64d683          	lhu	a3,-842(s1)
80002a30:	dc8a0613          	addi	a2,s4,-568
80002a34:	b721                	j	8000293c <main+0x8be>
80002a36:	4786                	lw	a5,64(sp)
80002a38:	15f1                	addi	a1,a1,-4
80002a3a:	0ff5f593          	andi	a1,a1,255
80002a3e:	c5818513          	addi	a0,gp,-936 # 80005618 <caldac1>
80002a42:	b779                	j	800029d0 <main+0x952>
80002a44:	4795                	li	a5,5
80002a46:	10fb1e63          	bne	s6,a5,80002b62 <main+0xae4>
80002a4a:	4901                	li	s2,0
80002a4c:	49c1                	li	s3,16
80002a4e:	0905                	addi	s2,s2,1
80002a50:	0ff97913          	andi	s2,s2,255
80002a54:	800077b7          	lui	a5,0x80007
80002a58:	4601                	li	a2,0
80002a5a:	85ca                	mv	a1,s2
80002a5c:	80478513          	addi	a0,a5,-2044 # 80006804 <__stack_top+0xffffc854>
80002a60:	9ddfe0ef          	jal	ra,8000143c <MCP_pinWrite>
80002a64:	ff3915e3          	bne	s2,s3,80002a4e <main+0x9d0>
80002a68:	00544783          	lbu	a5,5(s0)
80002a6c:	00444983          	lbu	s3,4(s0)
80002a70:	80006937          	lui	s2,0x80006
80002a74:	80005ab7          	lui	s5,0x80005
80002a78:	5af90023          	sb	a5,1440(s2) # 800065a0 <__stack_top+0xffffc5f0>
80002a7c:	4a01                	li	s4,0
80002a7e:	1b8a8a93          	addi	s5,s5,440 # 800051b8 <__stack_top+0xffffb208>
80002a82:	80007bb7          	lui	s7,0x80007
80002a86:	4b21                	li	s6,8
80002a88:	4149d7b3          	sra	a5,s3,s4
80002a8c:	8b85                	andi	a5,a5,1
80002a8e:	cb91                	beqz	a5,80002aa2 <main+0xa24>
80002a90:	014a87b3          	add	a5,s5,s4
80002a94:	0007c583          	lbu	a1,0(a5)
80002a98:	4605                	li	a2,1
80002a9a:	804b8513          	addi	a0,s7,-2044 # 80006804 <__stack_top+0xffffc854>
80002a9e:	99ffe0ef          	jal	ra,8000143c <MCP_pinWrite>
80002aa2:	0a05                	addi	s4,s4,1
80002aa4:	ff6a12e3          	bne	s4,s6,80002a88 <main+0xa0a>
80002aa8:	80007537          	lui	a0,0x80007
80002aac:	cbe50513          	addi	a0,a0,-834 # 80006cbe <__stack_top+0xffffcd0e>
80002ab0:	5a2010ef          	jal	ra,80004052 <readU16fromBytes>
80002ab4:	c6a19823          	sh	a0,-912(gp) # 80005630 <dutyCycle>
80002ab8:	80007537          	lui	a0,0x80007
80002abc:	cc050513          	addi	a0,a0,-832 # 80006cc0 <__stack_top+0xffffcd10>
80002ac0:	5a0010ef          	jal	ra,80004060 <readU32fromBytes>
80002ac4:	80007a37          	lui	s4,0x80007
80002ac8:	80006bb7          	lui	s7,0x80006
80002acc:	86aa                	mv	a3,a0
80002ace:	72aba823          	sw	a0,1840(s7) # 80006730 <__stack_top+0xffffc780>
80002ad2:	4605                	li	a2,1
80002ad4:	c88a0513          	addi	a0,s4,-888 # 80006c88 <__stack_top+0xffffccd8>
80002ad8:	700015b7          	lui	a1,0x70001
80002adc:	f15fd0ef          	jal	ra,800009f0 <PWM_init>
80002ae0:	c701d603          	lhu	a2,-912(gp) # 80005630 <dutyCycle>
80002ae4:	c88a0513          	addi	a0,s4,-888
80002ae8:	4585                	li	a1,1
80002aea:	8b0fe0ef          	jal	ra,80000b9a <PWM_set_duty_cycle>
80002aee:	c88a0513          	addi	a0,s4,-888
80002af2:	4585                	li	a1,1
80002af4:	ff7fd0ef          	jal	ra,80000aea <PWM_enable>
80002af8:	cb64d703          	lhu	a4,-842(s1)
80002afc:	80008a37          	lui	s4,0x80008
80002b00:	dc8a0a93          	addi	s5,s4,-568 # 80007dc8 <__stack_top+0xffffde18>
80002b04:	00170793          	addi	a5,a4,1
80002b08:	caf49b23          	sh	a5,-842(s1)
80002b0c:	9756                	add	a4,a4,s5
80002b0e:	4795                	li	a5,5
80002b10:	4689                	li	a3,2
80002b12:	4621                	li	a2,8
80002b14:	cb648593          	addi	a1,s1,-842
80002b18:	dc8a0513          	addi	a0,s4,-568
80002b1c:	00f70023          	sb	a5,0(a4)
80002b20:	1c1010ef          	jal	ra,800044e0 <bufWrite>
80002b24:	cb64d783          	lhu	a5,-842(s1)
80002b28:	c701d603          	lhu	a2,-912(gp) # 80005630 <dutyCycle>
80002b2c:	cb648593          	addi	a1,s1,-842
80002b30:	01578733          	add	a4,a5,s5
80002b34:	00278693          	addi	a3,a5,2
80002b38:	0785                	addi	a5,a5,1
80002b3a:	01370023          	sb	s3,0(a4)
80002b3e:	07c2                	slli	a5,a5,0x10
80002b40:	5a094703          	lbu	a4,1440(s2)
80002b44:	83c1                	srli	a5,a5,0x10
80002b46:	cad49b23          	sh	a3,-842(s1)
80002b4a:	97d6                	add	a5,a5,s5
80002b4c:	4689                	li	a3,2
80002b4e:	dc8a0513          	addi	a0,s4,-568
80002b52:	00e78023          	sb	a4,0(a5)
80002b56:	18b010ef          	jal	ra,800044e0 <bufWrite>
80002b5a:	4691                	li	a3,4
80002b5c:	730ba603          	lw	a2,1840(s7)
80002b60:	bd75                	j	80002a1c <main+0x99e>
80002b62:	4799                	li	a5,6
80002b64:	04fb1563          	bne	s6,a5,80002bae <main+0xb30>
80002b68:	80007537          	lui	a0,0x80007
80002b6c:	4585                	li	a1,1
80002b6e:	c8850513          	addi	a0,a0,-888 # 80006c88 <__stack_top+0xffffccd8>
80002b72:	fcffd0ef          	jal	ra,80000b40 <PWM_disable>
80002b76:	cb695783          	lhu	a5,-842(s2)
80002b7a:	800084b7          	lui	s1,0x80008
80002b7e:	4689                	li	a3,2
80002b80:	00178713          	addi	a4,a5,1
80002b84:	cae91b23          	sh	a4,-842(s2)
80002b88:	dc848713          	addi	a4,s1,-568 # 80007dc8 <__stack_top+0xffffde18>
80002b8c:	97ba                	add	a5,a5,a4
80002b8e:	4601                	li	a2,0
80002b90:	cb690593          	addi	a1,s2,-842
80002b94:	dc848513          	addi	a0,s1,-568
80002b98:	01678023          	sb	s6,0(a5)
80002b9c:	145010ef          	jal	ra,800044e0 <bufWrite>
80002ba0:	800077b7          	lui	a5,0x80007
80002ba4:	cb695683          	lhu	a3,-842(s2)
80002ba8:	dc848613          	addi	a2,s1,-568
80002bac:	bb41                	j	8000293c <main+0x8be>
80002bae:	47bd                	li	a5,15
80002bb0:	04fb1163          	bne	s6,a5,80002bf2 <main+0xb74>
80002bb4:	4601                	li	a2,0
80002bb6:	4581                	li	a1,0
80002bb8:	4541                	li	a0,16
80002bba:	56c010ef          	jal	ra,80004126 <digi_write>
80002bbe:	4601                	li	a2,0
80002bc0:	4585                	li	a1,1
80002bc2:	4541                	li	a0,16
80002bc4:	562010ef          	jal	ra,80004126 <digi_write>
80002bc8:	cdc1a783          	lw	a5,-804(gp) # 8000569c <registers_0_addr>
80002bcc:	0407a023          	sw	zero,64(a5) # 80007040 <__stack_top+0xffffd090>
80002bd0:	cb695783          	lhu	a5,-842(s2)
80002bd4:	00178713          	addi	a4,a5,1
80002bd8:	cae91b23          	sh	a4,-842(s2)
80002bdc:	80008937          	lui	s2,0x80008
80002be0:	dc890713          	addi	a4,s2,-568 # 80007dc8 <__stack_top+0xffffde18>
80002be4:	97ba                	add	a5,a5,a4
80002be6:	473d                	li	a4,15
80002be8:	00e78023          	sb	a4,0(a5)
80002bec:	4689                	li	a3,2
80002bee:	4601                	li	a2,0
80002bf0:	a841                	j	80002c80 <main+0xc02>
80002bf2:	479d                	li	a5,7
80002bf4:	10fb1c63          	bne	s6,a5,80002d0c <main+0xc8e>
80002bf8:	4785                	li	a5,1
80002bfa:	00444983          	lbu	s3,4(s0)
80002bfe:	caf91b23          	sh	a5,-842(s2)
80002c02:	80008937          	lui	s2,0x80008
80002c06:	dd690423          	sb	s6,-568(s2) # 80007dc8 <__stack_top+0xffffde18>
80002c0a:	05f00793          	li	a5,95
80002c0e:	4689                	li	a3,2
80002c10:	0737ef63          	bltu	a5,s3,80002c8e <main+0xc10>
80002c14:	4629                	li	a2,10
80002c16:	cb648593          	addi	a1,s1,-842
80002c1a:	dc890513          	addi	a0,s2,-568
80002c1e:	0c3010ef          	jal	ra,800044e0 <bufWrite>
80002c22:	864e                	mv	a2,s3
80002c24:	4689                	li	a3,2
80002c26:	cb648593          	addi	a1,s1,-842
80002c2a:	dc890513          	addi	a0,s2,-568
80002c2e:	0b3010ef          	jal	ra,800044e0 <bufWrite>
80002c32:	57c2                	lw	a5,48(sp)
80002c34:	0986                	slli	s3,s3,0x1
80002c36:	4689                	li	a3,2
80002c38:	97ce                	add	a5,a5,s3
80002c3a:	0007d603          	lhu	a2,0(a5)
80002c3e:	cb648593          	addi	a1,s1,-842
80002c42:	dc890513          	addi	a0,s2,-568
80002c46:	09b010ef          	jal	ra,800044e0 <bufWrite>
80002c4a:	57d2                	lw	a5,52(sp)
80002c4c:	4689                	li	a3,2
80002c4e:	cb648593          	addi	a1,s1,-842
80002c52:	97ce                	add	a5,a5,s3
80002c54:	0007d603          	lhu	a2,0(a5)
80002c58:	dc890513          	addi	a0,s2,-568
80002c5c:	085010ef          	jal	ra,800044e0 <bufWrite>
80002c60:	57a2                	lw	a5,40(sp)
80002c62:	4689                	li	a3,2
80002c64:	cb648593          	addi	a1,s1,-842
80002c68:	97ce                	add	a5,a5,s3
80002c6a:	0007d603          	lhu	a2,0(a5)
80002c6e:	dc890513          	addi	a0,s2,-568
80002c72:	06f010ef          	jal	ra,800044e0 <bufWrite>
80002c76:	57b2                	lw	a5,44(sp)
80002c78:	4689                	li	a3,2
80002c7a:	99be                	add	s3,s3,a5
80002c7c:	0009d603          	lhu	a2,0(s3)
80002c80:	cb648593          	addi	a1,s1,-842
80002c84:	dc890513          	addi	a0,s2,-568
80002c88:	059010ef          	jal	ra,800044e0 <bufWrite>
80002c8c:	a89d                	j	80002d02 <main+0xc84>
80002c8e:	30000613          	li	a2,768
80002c92:	cb648593          	addi	a1,s1,-842
80002c96:	dc890513          	addi	a0,s2,-568
80002c9a:	047010ef          	jal	ra,800044e0 <bufWrite>
80002c9e:	4981                	li	s3,0
80002ca0:	0c000a13          	li	s4,192
80002ca4:	57c2                	lw	a5,48(sp)
80002ca6:	4689                	li	a3,2
80002ca8:	cb648593          	addi	a1,s1,-842
80002cac:	97ce                	add	a5,a5,s3
80002cae:	0007d603          	lhu	a2,0(a5)
80002cb2:	dc890513          	addi	a0,s2,-568
80002cb6:	02b010ef          	jal	ra,800044e0 <bufWrite>
80002cba:	57d2                	lw	a5,52(sp)
80002cbc:	4689                	li	a3,2
80002cbe:	cb648593          	addi	a1,s1,-842
80002cc2:	97ce                	add	a5,a5,s3
80002cc4:	0007d603          	lhu	a2,0(a5)
80002cc8:	dc890513          	addi	a0,s2,-568
80002ccc:	015010ef          	jal	ra,800044e0 <bufWrite>
80002cd0:	57a2                	lw	a5,40(sp)
80002cd2:	4689                	li	a3,2
80002cd4:	cb648593          	addi	a1,s1,-842
80002cd8:	97ce                	add	a5,a5,s3
80002cda:	0007d603          	lhu	a2,0(a5)
80002cde:	dc890513          	addi	a0,s2,-568
80002ce2:	7fe010ef          	jal	ra,800044e0 <bufWrite>
80002ce6:	57b2                	lw	a5,44(sp)
80002ce8:	4689                	li	a3,2
80002cea:	cb648593          	addi	a1,s1,-842
80002cee:	97ce                	add	a5,a5,s3
80002cf0:	0007d603          	lhu	a2,0(a5)
80002cf4:	dc890513          	addi	a0,s2,-568
80002cf8:	0989                	addi	s3,s3,2
80002cfa:	7e6010ef          	jal	ra,800044e0 <bufWrite>
80002cfe:	fb4993e3          	bne	s3,s4,80002ca4 <main+0xc26>
80002d02:	800077b7          	lui	a5,0x80007
80002d06:	cb64d683          	lhu	a3,-842(s1)
80002d0a:	a9a9                	j	80003164 <main+0x10e6>
80002d0c:	47a9                	li	a5,10
80002d0e:	12fb1663          	bne	s6,a5,80002e3a <main+0xdbc>
80002d12:	4785                	li	a5,1
80002d14:	caf91b23          	sh	a5,-842(s2)
80002d18:	80008a37          	lui	s4,0x80008
80002d1c:	80008937          	lui	s2,0x80008
80002d20:	4689                	li	a3,2
80002d22:	04800613          	li	a2,72
80002d26:	cb648593          	addi	a1,s1,-842
80002d2a:	dc890513          	addi	a0,s2,-568 # 80007dc8 <__stack_top+0xffffde18>
80002d2e:	5a0a0a13          	addi	s4,s4,1440 # 800085a0 <__stack_top+0xffffe5f0>
80002d32:	6989                	lui	s3,0x2
80002d34:	dd690423          	sb	s6,-568(s2)
80002d38:	098a0c13          	addi	s8,s4,152
80002d3c:	7a4010ef          	jal	ra,800044e0 <bufWrite>
80002d40:	4c9d                	li	s9,7
80002d42:	80098993          	addi	s3,s3,-2048 # 1800 <HEAP_SIZE+0x800>
80002d46:	4d31                	li	s10,12
80002d48:	4b01                	li	s6,0
80002d4a:	0ffb7793          	andi	a5,s6,255
80002d4e:	4b89                	li	s7,2
80002d50:	016ce663          	bltu	s9,s6,80002d5c <main+0xcde>
80002d54:	0047bb93          	sltiu	s7,a5,4
80002d58:	001bcb93          	xori	s7,s7,1
80002d5c:	00bb1a93          	slli	s5,s6,0xb
80002d60:	013afab3          	and	s5,s5,s3
80002d64:	85de                	mv	a1,s7
80002d66:	8552                	mv	a0,s4
80002d68:	0ac2                	slli	s5,s5,0x10
80002d6a:	92dfd0ef          	jal	ra,80000696 <SPI_set_slave_select>
80002d6e:	010ada93          	srli	s5,s5,0x10
80002d72:	85d6                	mv	a1,s5
80002d74:	8552                	mv	a0,s4
80002d76:	9c1fd0ef          	jal	ra,80000736 <SPI_transfer_frame>
80002d7a:	85d6                	mv	a1,s5
80002d7c:	8552                	mv	a0,s4
80002d7e:	9b9fd0ef          	jal	ra,80000736 <SPI_transfer_frame>
80002d82:	85d6                	mv	a1,s5
80002d84:	8552                	mv	a0,s4
80002d86:	9b1fd0ef          	jal	ra,80000736 <SPI_transfer_frame>
80002d8a:	d22a                	sw	a0,36(sp)
80002d8c:	85de                	mv	a1,s7
80002d8e:	8552                	mv	a0,s4
80002d90:	955fd0ef          	jal	ra,800006e4 <SPI_clear_slave_select>
80002d94:	5612                	lw	a2,36(sp)
80002d96:	4689                	li	a3,2
80002d98:	cb648593          	addi	a1,s1,-842
80002d9c:	dc890513          	addi	a0,s2,-568
80002da0:	0b05                	addi	s6,s6,1
80002da2:	73e010ef          	jal	ra,800044e0 <bufWrite>
80002da6:	fbab12e3          	bne	s6,s10,80002d4a <main+0xccc>
80002daa:	04ca0a13          	addi	s4,s4,76
80002dae:	f94c1de3          	bne	s8,s4,80002d48 <main+0xcca>
80002db2:	69c1                	lui	s3,0x10
80002db4:	4a01                	li	s4,0
80002db6:	19fd                	addi	s3,s3,-1
80002db8:	4b11                	li	s6,4
80002dba:	cdc1a783          	lw	a5,-804(gp) # 8000569c <registers_0_addr>
80002dbe:	4505                	li	a0,1
80002dc0:	2547a223          	sw	s4,580(a5) # 80007244 <__stack_top+0xffffd294>
80002dc4:	2f4010ef          	jal	ra,800040b8 <delayUs>
80002dc8:	cdc1a783          	lw	a5,-804(gp) # 8000569c <registers_0_addr>
80002dcc:	4689                	li	a3,2
80002dce:	cb648593          	addi	a1,s1,-842
80002dd2:	2407a603          	lw	a2,576(a5)
80002dd6:	dc890513          	addi	a0,s2,-568
80002dda:	0a05                	addi	s4,s4,1
80002ddc:	01367633          	and	a2,a2,s3
80002de0:	700010ef          	jal	ra,800044e0 <bufWrite>
80002de4:	4505                	li	a0,1
80002de6:	2d2010ef          	jal	ra,800040b8 <delayUs>
80002dea:	fd6a18e3          	bne	s4,s6,80002dba <main+0xd3c>
80002dee:	4a05                	li	s4,1
80002df0:	4a91                	li	s5,4
80002df2:	4981                	li	s3,0
80002df4:	01099593          	slli	a1,s3,0x10
80002df8:	8652                	mv	a2,s4
80002dfa:	81c1                	srli	a1,a1,0x10
80002dfc:	04100513          	li	a0,65
80002e00:	326010ef          	jal	ra,80004126 <digi_write>
80002e04:	4505                	li	a0,1
80002e06:	2b2010ef          	jal	ra,800040b8 <delayUs>
80002e0a:	85d2                	mv	a1,s4
80002e0c:	04000513          	li	a0,64
80002e10:	37a010ef          	jal	ra,8000418a <digi_read>
80002e14:	862a                	mv	a2,a0
80002e16:	4689                	li	a3,2
80002e18:	cb648593          	addi	a1,s1,-842
80002e1c:	dc890513          	addi	a0,s2,-568
80002e20:	6c0010ef          	jal	ra,800044e0 <bufWrite>
80002e24:	4505                	li	a0,1
80002e26:	0985                	addi	s3,s3,1
80002e28:	290010ef          	jal	ra,800040b8 <delayUs>
80002e2c:	fd5994e3          	bne	s3,s5,80002df4 <main+0xd76>
80002e30:	4789                	li	a5,2
80002e32:	ecfa08e3          	beq	s4,a5,80002d02 <main+0xc84>
80002e36:	4a09                	li	s4,2
80002e38:	bf6d                	j	80002df2 <main+0xd74>
80002e3a:	47a1                	li	a5,8
80002e3c:	06fb1463          	bne	s6,a5,80002ea4 <main+0xe26>
80002e40:	00544583          	lbu	a1,5(s0)
80002e44:	00444503          	lbu	a0,4(s0)
80002e48:	0a10                	addi	a2,sp,272
80002e4a:	800089b7          	lui	s3,0x80008
80002e4e:	37a010ef          	jal	ra,800041c8 <read_histogram>
80002e52:	cb695783          	lhu	a5,-842(s2)
80002e56:	cb690593          	addi	a1,s2,-842
80002e5a:	4689                	li	a3,2
80002e5c:	00178713          	addi	a4,a5,1
80002e60:	cae91b23          	sh	a4,-842(s2)
80002e64:	dc898713          	addi	a4,s3,-568 # 80007dc8 <__stack_top+0xffffde18>
80002e68:	97ba                	add	a5,a5,a4
80002e6a:	20000613          	li	a2,512
80002e6e:	dc898513          	addi	a0,s3,-568
80002e72:	01678023          	sb	s6,0(a5)
80002e76:	11010913          	addi	s2,sp,272
80002e7a:	666010ef          	jal	ra,800044e0 <bufWrite>
80002e7e:	31010a13          	addi	s4,sp,784
80002e82:	00095603          	lhu	a2,0(s2)
80002e86:	4689                	li	a3,2
80002e88:	cb648593          	addi	a1,s1,-842
80002e8c:	dc898513          	addi	a0,s3,-568
80002e90:	0909                	addi	s2,s2,2
80002e92:	64e010ef          	jal	ra,800044e0 <bufWrite>
80002e96:	ff2a16e3          	bne	s4,s2,80002e82 <main+0xe04>
80002e9a:	800077b7          	lui	a5,0x80007
80002e9e:	cb64d683          	lhu	a3,-842(s1)
80002ea2:	bc59                	j	80002938 <main+0x8ba>
80002ea4:	47ad                	li	a5,11
80002ea6:	14fb1f63          	bne	s6,a5,80003004 <main+0xf86>
80002eaa:	4785                	li	a5,1
80002eac:	caf91b23          	sh	a5,-842(s2)
80002eb0:	80008937          	lui	s2,0x80008
80002eb4:	4689                	li	a3,2
80002eb6:	03300613          	li	a2,51
80002eba:	cb648593          	addi	a1,s1,-842
80002ebe:	dc890513          	addi	a0,s2,-568 # 80007dc8 <__stack_top+0xffffde18>
80002ec2:	dd690423          	sb	s6,-568(s2)
80002ec6:	61a010ef          	jal	ra,800044e0 <bufWrite>
80002eca:	4796                	lw	a5,68(sp)
80002ecc:	01d0                	addi	a2,sp,196
80002ece:	0a0c                	addi	a1,sp,272
80002ed0:	28c78513          	addi	a0,a5,652 # 8000728c <__stack_top+0xffffd2dc>
80002ed4:	926ff0ef          	jal	ra,80001ffa <bme280_get_calib>
80002ed8:	4796                	lw	a5,68(sp)
80002eda:	09cc                	addi	a1,sp,212
80002edc:	4981                	li	s3,0
80002ede:	28c78513          	addi	a0,a5,652
80002ee2:	93eff0ef          	jal	ra,80002020 <bme280_get_htp>
80002ee6:	4a69                	li	s4,26
80002ee8:	0a1c                	addi	a5,sp,272
80002eea:	97ce                	add	a5,a5,s3
80002eec:	0007c603          	lbu	a2,0(a5)
80002ef0:	4685                	li	a3,1
80002ef2:	cb648593          	addi	a1,s1,-842
80002ef6:	dc890513          	addi	a0,s2,-568
80002efa:	0985                	addi	s3,s3,1
80002efc:	5e4010ef          	jal	ra,800044e0 <bufWrite>
80002f00:	ff4994e3          	bne	s3,s4,80002ee8 <main+0xe6a>
80002f04:	4981                	li	s3,0
80002f06:	4a1d                	li	s4,7
80002f08:	01dc                	addi	a5,sp,196
80002f0a:	97ce                	add	a5,a5,s3
80002f0c:	0007c603          	lbu	a2,0(a5)
80002f10:	4685                	li	a3,1
80002f12:	cb648593          	addi	a1,s1,-842
80002f16:	dc890513          	addi	a0,s2,-568
80002f1a:	0985                	addi	s3,s3,1
80002f1c:	5c4010ef          	jal	ra,800044e0 <bufWrite>
80002f20:	ff4994e3          	bne	s3,s4,80002f08 <main+0xe8a>
80002f24:	4981                	li	s3,0
80002f26:	4a21                	li	s4,8
80002f28:	09dc                	addi	a5,sp,212
80002f2a:	97ce                	add	a5,a5,s3
80002f2c:	0007c603          	lbu	a2,0(a5)
80002f30:	4685                	li	a3,1
80002f32:	cb648593          	addi	a1,s1,-842
80002f36:	dc890513          	addi	a0,s2,-568
80002f3a:	0985                	addi	s3,s3,1
80002f3c:	5a4010ef          	jal	ra,800044e0 <bufWrite>
80002f40:	ff4994e3          	bne	s3,s4,80002f28 <main+0xeaa>
80002f44:	01e8                	addi	a0,sp,204
80002f46:	0a011823          	sh	zero,176(sp)
80002f4a:	0a011923          	sh	zero,178(sp)
80002f4e:	fd5fd0ef          	jal	ra,80000f22 <hdc2080_reset>
80002f52:	4529                	li	a0,10
80002f54:	14e010ef          	jal	ra,800040a2 <delay_ms>
80002f58:	01e8                	addi	a0,sp,204
80002f5a:	f91fd0ef          	jal	ra,80000eea <hdc2080_trigger_measurement>
80002f5e:	190c                	addi	a1,sp,176
80002f60:	01e8                	addi	a0,sp,204
80002f62:	f15fd0ef          	jal	ra,80000e76 <hdc2080_read_temp>
80002f66:	0b210593          	addi	a1,sp,178
80002f6a:	01e8                	addi	a0,sp,204
80002f6c:	f45fd0ef          	jal	ra,80000eb0 <hdc2080_read_humidity>
80002f70:	0b015603          	lhu	a2,176(sp)
80002f74:	4689                	li	a3,2
80002f76:	cb648593          	addi	a1,s1,-842
80002f7a:	dc890513          	addi	a0,s2,-568
80002f7e:	562010ef          	jal	ra,800044e0 <bufWrite>
80002f82:	0b215603          	lhu	a2,178(sp)
80002f86:	4689                	li	a3,2
80002f88:	cb648593          	addi	a1,s1,-842
80002f8c:	dc890513          	addi	a0,s2,-568
80002f90:	550010ef          	jal	ra,800044e0 <bufWrite>
80002f94:	47b6                	lw	a5,76(sp)
80002f96:	4585                	li	a1,1
80002f98:	25018513          	addi	a0,gp,592 # 80005c10 <spi_ambtemp_cal>
80002f9c:	dabfd0ef          	jal	ra,80000d46 <ADC124S051_daisy_read>
80002fa0:	47c6                	lw	a5,80(sp)
80002fa2:	d22a                	sw	a0,36(sp)
80002fa4:	4581                	li	a1,0
80002fa6:	ce018513          	addi	a0,gp,-800 # 800056a0 <spi_ambtemp_hv>
80002faa:	d9dfd0ef          	jal	ra,80000d46 <ADC124S051_daisy_read>
80002fae:	5612                	lw	a2,36(sp)
80002fb0:	89aa                	mv	s3,a0
80002fb2:	4689                	li	a3,2
80002fb4:	cb648593          	addi	a1,s1,-842
80002fb8:	dc890513          	addi	a0,s2,-568
80002fbc:	524010ef          	jal	ra,800044e0 <bufWrite>
80002fc0:	864e                	mv	a2,s3
80002fc2:	4689                	li	a3,2
80002fc4:	cb648593          	addi	a1,s1,-842
80002fc8:	dc890513          	addi	a0,s2,-568
80002fcc:	514010ef          	jal	ra,800044e0 <bufWrite>
80002fd0:	800089b7          	lui	s3,0x80008
80002fd4:	4589                	li	a1,2
80002fd6:	5a098513          	addi	a0,s3,1440 # 800085a0 <__stack_top+0xffffe5f0>
80002fda:	ebcfd0ef          	jal	ra,80000696 <SPI_set_slave_select>
80002fde:	4581                	li	a1,0
80002fe0:	5a098513          	addi	a0,s3,1440
80002fe4:	f52fd0ef          	jal	ra,80000736 <SPI_transfer_frame>
80002fe8:	4581                	li	a1,0
80002fea:	5a098513          	addi	a0,s3,1440
80002fee:	f48fd0ef          	jal	ra,80000736 <SPI_transfer_frame>
80002ff2:	d22a                	sw	a0,36(sp)
80002ff4:	4589                	li	a1,2
80002ff6:	5a098513          	addi	a0,s3,1440
80002ffa:	eeafd0ef          	jal	ra,800006e4 <SPI_clear_slave_select>
80002ffe:	4689                	li	a3,2
80003000:	5612                	lw	a2,36(sp)
80003002:	b9bd                	j	80002c80 <main+0xc02>
80003004:	47c1                	li	a5,16
80003006:	0afb1e63          	bne	s6,a5,800030c2 <main+0x1044>
8000300a:	80007537          	lui	a0,0x80007
8000300e:	cbf50513          	addi	a0,a0,-833 # 80006cbf <__stack_top+0xffffcd0f>
80003012:	00444a83          	lbu	s5,4(s0)
80003016:	00544a03          	lbu	s4,5(s0)
8000301a:	00644983          	lbu	s3,6(s0)
8000301e:	042010ef          	jal	ra,80004060 <readU32fromBytes>
80003022:	cb695783          	lhu	a5,-842(s2)
80003026:	8baa                	mv	s7,a0
80003028:	4689                	li	a3,2
8000302a:	00178713          	addi	a4,a5,1
8000302e:	cae91b23          	sh	a4,-842(s2)
80003032:	80008937          	lui	s2,0x80008
80003036:	dc890713          	addi	a4,s2,-568 # 80007dc8 <__stack_top+0xffffde18>
8000303a:	97ba                	add	a5,a5,a4
8000303c:	461d                	li	a2,7
8000303e:	cb648593          	addi	a1,s1,-842
80003042:	dc890513          	addi	a0,s2,-568
80003046:	01678023          	sb	s6,0(a5)
8000304a:	496010ef          	jal	ra,800044e0 <bufWrite>
8000304e:	4789                	li	a5,2
80003050:	0547ec63          	bltu	a5,s4,800030a8 <main+0x102a>
80003054:	040a9263          	bnez	s5,80003098 <main+0x101a>
80003058:	85d2                	mv	a1,s4
8000305a:	854e                	mv	a0,s3
8000305c:	12e010ef          	jal	ra,8000418a <digi_read>
80003060:	8baa                	mv	s7,a0
80003062:	4685                	li	a3,1
80003064:	8656                	mv	a2,s5
80003066:	cb648593          	addi	a1,s1,-842
8000306a:	dc890513          	addi	a0,s2,-568
8000306e:	472010ef          	jal	ra,800044e0 <bufWrite>
80003072:	4685                	li	a3,1
80003074:	8652                	mv	a2,s4
80003076:	cb648593          	addi	a1,s1,-842
8000307a:	dc890513          	addi	a0,s2,-568
8000307e:	462010ef          	jal	ra,800044e0 <bufWrite>
80003082:	4685                	li	a3,1
80003084:	864e                	mv	a2,s3
80003086:	cb648593          	addi	a1,s1,-842
8000308a:	dc890513          	addi	a0,s2,-568
8000308e:	452010ef          	jal	ra,800044e0 <bufWrite>
80003092:	4691                	li	a3,4
80003094:	865e                	mv	a2,s7
80003096:	b6ed                	j	80002c80 <main+0xc02>
80003098:	010b9593          	slli	a1,s7,0x10
8000309c:	8652                	mv	a2,s4
8000309e:	81c1                	srli	a1,a1,0x10
800030a0:	854e                	mv	a0,s3
800030a2:	084010ef          	jal	ra,80004126 <digi_write>
800030a6:	bf75                	j	80003062 <main+0xfe4>
800030a8:	cdc1a703          	lw	a4,-804(gp) # 8000569c <registers_0_addr>
800030ac:	00299793          	slli	a5,s3,0x2
800030b0:	97ba                	add	a5,a5,a4
800030b2:	000a9563          	bnez	s5,800030bc <main+0x103e>
800030b6:	0007ab83          	lw	s7,0(a5)
800030ba:	b765                	j	80003062 <main+0xfe4>
800030bc:	0177a023          	sw	s7,0(a5)
800030c0:	b74d                	j	80003062 <main+0xfe4>
800030c2:	47b5                	li	a5,13
800030c4:	0afb1463          	bne	s6,a5,8000316c <main+0x10ee>
800030c8:	4581                	li	a1,0
800030ca:	09c8                	addi	a0,sp,212
800030cc:	cc2fd0ef          	jal	ra,8000058e <SYS_get_serial_number>
800030d0:	4581                	li	a1,0
800030d2:	0a08                	addi	a0,sp,272
800030d4:	cd2fd0ef          	jal	ra,800005a6 <SYS_get_design_info>
800030d8:	cb695783          	lhu	a5,-842(s2)
800030dc:	4689                	li	a3,2
800030de:	03400613          	li	a2,52
800030e2:	00178713          	addi	a4,a5,1
800030e6:	cae91b23          	sh	a4,-842(s2)
800030ea:	80008937          	lui	s2,0x80008
800030ee:	dc890713          	addi	a4,s2,-568 # 80007dc8 <__stack_top+0xffffde18>
800030f2:	97ba                	add	a5,a5,a4
800030f4:	cb648593          	addi	a1,s1,-842
800030f8:	dc890513          	addi	a0,s2,-568
800030fc:	01678023          	sb	s6,0(a5)
80003100:	3e0010ef          	jal	ra,800044e0 <bufWrite>
80003104:	cb64d683          	lhu	a3,-842(s1)
80003108:	4781                	li	a5,0
8000310a:	dc890613          	addi	a2,s2,-568
8000310e:	45c1                	li	a1,16
80003110:	09c8                	addi	a0,sp,212
80003112:	00f68733          	add	a4,a3,a5
80003116:	953e                	add	a0,a0,a5
80003118:	0742                	slli	a4,a4,0x10
8000311a:	00054503          	lbu	a0,0(a0)
8000311e:	8341                	srli	a4,a4,0x10
80003120:	9732                	add	a4,a4,a2
80003122:	00a70023          	sb	a0,0(a4)
80003126:	0785                	addi	a5,a5,1
80003128:	feb794e3          	bne	a5,a1,80003110 <main+0x1092>
8000312c:	01068793          	addi	a5,a3,16
80003130:	03468693          	addi	a3,a3,52
80003134:	07c2                	slli	a5,a5,0x10
80003136:	01069593          	slli	a1,a3,0x10
8000313a:	83c1                	srli	a5,a5,0x10
8000313c:	0a18                	addi	a4,sp,272
8000313e:	81c1                	srli	a1,a1,0x10
80003140:	00074803          	lbu	a6,0(a4)
80003144:	00f60533          	add	a0,a2,a5
80003148:	0785                	addi	a5,a5,1
8000314a:	07c2                	slli	a5,a5,0x10
8000314c:	01050023          	sb	a6,0(a0)
80003150:	83c1                	srli	a5,a5,0x10
80003152:	0705                	addi	a4,a4,1
80003154:	fef596e3          	bne	a1,a5,80003140 <main+0x10c2>
80003158:	06c2                	slli	a3,a3,0x10
8000315a:	82c1                	srli	a3,a3,0x10
8000315c:	cad49b23          	sh	a3,-842(s1)
80003160:	800077b7          	lui	a5,0x80007
80003164:	dc890613          	addi	a2,s2,-568
80003168:	fd4ff06f          	j	8000293c <main+0x8be>
8000316c:	47cd                	li	a5,19
8000316e:	0cfb1663          	bne	s6,a5,8000323a <main+0x11bc>
80003172:	00444a83          	lbu	s5,4(s0)
80003176:	00544983          	lbu	s3,5(s0)
8000317a:	80006937          	lui	s2,0x80006
8000317e:	73490b13          	addi	s6,s2,1844 # 80006734 <__stack_top+0xffffc784>
80003182:	4a01                	li	s4,0
80003184:	03000913          	li	s2,48
80003188:	004a5513          	srli	a0,s4,0x4
8000318c:	00950793          	addi	a5,a0,9
80003190:	00179513          	slli	a0,a5,0x1
80003194:	953e                	add	a0,a0,a5
80003196:	050a                	slli	a0,a0,0x2
80003198:	953e                	add	a0,a0,a5
8000319a:	00fa7593          	andi	a1,s4,15
8000319e:	050e                	slli	a0,a0,0x3
800031a0:	0a05                	addi	s4,s4,1
800031a2:	4601                	li	a2,0
800031a4:	0585                	addi	a1,a1,1
800031a6:	955a                	add	a0,a0,s6
800031a8:	0ffa7a13          	andi	s4,s4,255
800031ac:	a90fe0ef          	jal	ra,8000143c <MCP_pinWrite>
800031b0:	fd2a1ce3          	bne	s4,s2,80003188 <main+0x110a>
800031b4:	004ad913          	srli	s2,s5,0x4
800031b8:	00990793          	addi	a5,s2,9
800031bc:	00179913          	slli	s2,a5,0x1
800031c0:	993e                	add	s2,s2,a5
800031c2:	090a                	slli	s2,s2,0x2
800031c4:	993e                	add	s2,s2,a5
800031c6:	090e                	slli	s2,s2,0x3
800031c8:	00fafa13          	andi	s4,s5,15
800031cc:	995a                	add	s2,s2,s6
800031ce:	0a05                	addi	s4,s4,1
800031d0:	4605                	li	a2,1
800031d2:	85d2                	mv	a1,s4
800031d4:	854a                	mv	a0,s2
800031d6:	a66fe0ef          	jal	ra,8000143c <MCP_pinWrite>
800031da:	02098063          	beqz	s3,800031fa <main+0x117c>
800031de:	00599513          	slli	a0,s3,0x5
800031e2:	41350533          	sub	a0,a0,s3
800031e6:	050a                	slli	a0,a0,0x2
800031e8:	954e                	add	a0,a0,s3
800031ea:	050e                	slli	a0,a0,0x3
800031ec:	6b7000ef          	jal	ra,800040a2 <delay_ms>
800031f0:	4601                	li	a2,0
800031f2:	85d2                	mv	a1,s4
800031f4:	854a                	mv	a0,s2
800031f6:	a46fe0ef          	jal	ra,8000143c <MCP_pinWrite>
800031fa:	cb64d783          	lhu	a5,-842(s1)
800031fe:	80008937          	lui	s2,0x80008
80003202:	4689                	li	a3,2
80003204:	00178713          	addi	a4,a5,1 # 80007001 <__stack_top+0xffffd051>
80003208:	cae49b23          	sh	a4,-842(s1)
8000320c:	dc890713          	addi	a4,s2,-568 # 80007dc8 <__stack_top+0xffffde18>
80003210:	97ba                	add	a5,a5,a4
80003212:	4609                	li	a2,2
80003214:	474d                	li	a4,19
80003216:	cb648593          	addi	a1,s1,-842
8000321a:	dc890513          	addi	a0,s2,-568
8000321e:	00e78023          	sb	a4,0(a5)
80003222:	2be010ef          	jal	ra,800044e0 <bufWrite>
80003226:	4685                	li	a3,1
80003228:	8656                	mv	a2,s5
8000322a:	cb648593          	addi	a1,s1,-842
8000322e:	dc890513          	addi	a0,s2,-568
80003232:	2ae010ef          	jal	ra,800044e0 <bufWrite>
80003236:	4685                	li	a3,1
80003238:	a8c1                	j	80003308 <main+0x128a>
8000323a:	47d1                	li	a5,20
8000323c:	04fb1c63          	bne	s6,a5,80003294 <main+0x1216>
80003240:	800069b7          	lui	s3,0x80006
80003244:	4901                	li	s2,0
80003246:	73498993          	addi	s3,s3,1844 # 80006734 <__stack_top+0xffffc784>
8000324a:	03000a13          	li	s4,48
8000324e:	00495513          	srli	a0,s2,0x4
80003252:	00950793          	addi	a5,a0,9
80003256:	00179513          	slli	a0,a5,0x1
8000325a:	953e                	add	a0,a0,a5
8000325c:	050a                	slli	a0,a0,0x2
8000325e:	953e                	add	a0,a0,a5
80003260:	00f97593          	andi	a1,s2,15
80003264:	050e                	slli	a0,a0,0x3
80003266:	0905                	addi	s2,s2,1
80003268:	4601                	li	a2,0
8000326a:	0585                	addi	a1,a1,1
8000326c:	954e                	add	a0,a0,s3
8000326e:	0ff97913          	andi	s2,s2,255
80003272:	9cafe0ef          	jal	ra,8000143c <MCP_pinWrite>
80003276:	fd491ce3          	bne	s2,s4,8000324e <main+0x11d0>
8000327a:	cb64d783          	lhu	a5,-842(s1)
8000327e:	80008937          	lui	s2,0x80008
80003282:	00178713          	addi	a4,a5,1
80003286:	cae49b23          	sh	a4,-842(s1)
8000328a:	dc890713          	addi	a4,s2,-568 # 80007dc8 <__stack_top+0xffffde18>
8000328e:	97ba                	add	a5,a5,a4
80003290:	4751                	li	a4,20
80003292:	ba99                	j	80002be8 <main+0xb6a>
80003294:	47d5                	li	a5,21
80003296:	06fb1b63          	bne	s6,a5,8000330c <main+0x128e>
8000329a:	4785                	li	a5,1
8000329c:	caf91b23          	sh	a5,-842(s2)
800032a0:	80008937          	lui	s2,0x80008
800032a4:	4689                	li	a3,2
800032a6:	4619                	li	a2,6
800032a8:	cb648593          	addi	a1,s1,-842
800032ac:	dc890513          	addi	a0,s2,-568 # 80007dc8 <__stack_top+0xffffde18>
800032b0:	800089b7          	lui	s3,0x80008
800032b4:	dd690423          	sb	s6,-568(s2)
800032b8:	228010ef          	jal	ra,800044e0 <bufWrite>
800032bc:	4605                	li	a2,1
800032be:	4581                	li	a1,0
800032c0:	6d098513          	addi	a0,s3,1744 # 800086d0 <__stack_top+0xffffe720>
800032c4:	ab5fd0ef          	jal	ra,80000d78 <ADC124S051_read>
800032c8:	8aaa                	mv	s5,a0
800032ca:	460d                	li	a2,3
800032cc:	4581                	li	a1,0
800032ce:	6d098513          	addi	a0,s3,1744
800032d2:	aa7fd0ef          	jal	ra,80000d78 <ADC124S051_read>
800032d6:	8a2a                	mv	s4,a0
800032d8:	4601                	li	a2,0
800032da:	4581                	li	a1,0
800032dc:	6d098513          	addi	a0,s3,1744
800032e0:	a99fd0ef          	jal	ra,80000d78 <ADC124S051_read>
800032e4:	4689                	li	a3,2
800032e6:	8656                	mv	a2,s5
800032e8:	cb648593          	addi	a1,s1,-842
800032ec:	89aa                	mv	s3,a0
800032ee:	dc890513          	addi	a0,s2,-568
800032f2:	1ee010ef          	jal	ra,800044e0 <bufWrite>
800032f6:	4689                	li	a3,2
800032f8:	8652                	mv	a2,s4
800032fa:	cb648593          	addi	a1,s1,-842
800032fe:	dc890513          	addi	a0,s2,-568
80003302:	1de010ef          	jal	ra,800044e0 <bufWrite>
80003306:	4689                	li	a3,2
80003308:	864e                	mv	a2,s3
8000330a:	ba9d                	j	80002c80 <main+0xc02>
8000330c:	03b00793          	li	a5,59
80003310:	02fb1463          	bne	s6,a5,80003338 <main+0x12ba>
80003314:	cdc1a783          	lw	a5,-804(gp) # 8000569c <registers_0_addr>
80003318:	00444983          	lbu	s3,4(s0)
8000331c:	0d37a623          	sw	s3,204(a5)
80003320:	4785                	li	a5,1
80003322:	caf91b23          	sh	a5,-842(s2)
80003326:	80008937          	lui	s2,0x80008
8000332a:	03b00793          	li	a5,59
8000332e:	dcf90423          	sb	a5,-568(s2) # 80007dc8 <__stack_top+0xffffde18>
80003332:	4689                	li	a3,2
80003334:	4605                	li	a2,1
80003336:	bdd5                	j	8000322a <main+0x11ac>
80003338:	05100793          	li	a5,81
8000333c:	02fb1063          	bne	s6,a5,8000335c <main+0x12de>
80003340:	cdc1a783          	lw	a5,-804(gp) # 8000569c <registers_0_addr>
80003344:	00444983          	lbu	s3,4(s0)
80003348:	0937a423          	sw	s3,136(a5)
8000334c:	4785                	li	a5,1
8000334e:	caf91b23          	sh	a5,-842(s2)
80003352:	80008937          	lui	s2,0x80008
80003356:	dd690423          	sb	s6,-568(s2) # 80007dc8 <__stack_top+0xffffde18>
8000335a:	bfe1                	j	80003332 <main+0x12b4>
8000335c:	03400793          	li	a5,52
80003360:	12fb1d63          	bne	s6,a5,8000349a <main+0x141c>
80003364:	4785                	li	a5,1
80003366:	caf91b23          	sh	a5,-842(s2)
8000336a:	80008937          	lui	s2,0x80008
8000336e:	4689                	li	a3,2
80003370:	02500613          	li	a2,37
80003374:	cb648593          	addi	a1,s1,-842
80003378:	dc890513          	addi	a0,s2,-568 # 80007dc8 <__stack_top+0xffffde18>
8000337c:	dd690423          	sb	s6,-568(s2)
80003380:	160010ef          	jal	ra,800044e0 <bufWrite>
80003384:	cdc1a783          	lw	a5,-804(gp) # 8000569c <registers_0_addr>
80003388:	4691                	li	a3,4
8000338a:	cb648593          	addi	a1,s1,-842
8000338e:	0fc7a603          	lw	a2,252(a5)
80003392:	dc890513          	addi	a0,s2,-568
80003396:	14a010ef          	jal	ra,800044e0 <bufWrite>
8000339a:	cdc1a783          	lw	a5,-804(gp) # 8000569c <registers_0_addr>
8000339e:	4691                	li	a3,4
800033a0:	cb648593          	addi	a1,s1,-842
800033a4:	0f87a603          	lw	a2,248(a5)
800033a8:	dc890513          	addi	a0,s2,-568
800033ac:	134010ef          	jal	ra,800044e0 <bufWrite>
800033b0:	cdc1a783          	lw	a5,-804(gp) # 8000569c <registers_0_addr>
800033b4:	4685                	li	a3,1
800033b6:	cb648593          	addi	a1,s1,-842
800033ba:	0c47a603          	lw	a2,196(a5)
800033be:	dc890513          	addi	a0,s2,-568
800033c2:	11e010ef          	jal	ra,800044e0 <bufWrite>
800033c6:	cdc1a783          	lw	a5,-804(gp) # 8000569c <registers_0_addr>
800033ca:	4691                	li	a3,4
800033cc:	cb648593          	addi	a1,s1,-842
800033d0:	0d47a603          	lw	a2,212(a5)
800033d4:	dc890513          	addi	a0,s2,-568
800033d8:	108010ef          	jal	ra,800044e0 <bufWrite>
800033dc:	cdc1a783          	lw	a5,-804(gp) # 8000569c <registers_0_addr>
800033e0:	4691                	li	a3,4
800033e2:	cb648593          	addi	a1,s1,-842
800033e6:	0d87a603          	lw	a2,216(a5)
800033ea:	dc890513          	addi	a0,s2,-568
800033ee:	0f2010ef          	jal	ra,800044e0 <bufWrite>
800033f2:	cdc1a783          	lw	a5,-804(gp) # 8000569c <registers_0_addr>
800033f6:	4685                	li	a3,1
800033f8:	cb648593          	addi	a1,s1,-842
800033fc:	0e87a603          	lw	a2,232(a5)
80003400:	dc890513          	addi	a0,s2,-568
80003404:	0dc010ef          	jal	ra,800044e0 <bufWrite>
80003408:	cdc1a783          	lw	a5,-804(gp) # 8000569c <registers_0_addr>
8000340c:	4685                	li	a3,1
8000340e:	cb648593          	addi	a1,s1,-842
80003412:	0e47a603          	lw	a2,228(a5)
80003416:	dc890513          	addi	a0,s2,-568
8000341a:	0c6010ef          	jal	ra,800044e0 <bufWrite>
8000341e:	cdc1a783          	lw	a5,-804(gp) # 8000569c <registers_0_addr>
80003422:	4685                	li	a3,1
80003424:	cb648593          	addi	a1,s1,-842
80003428:	0f47a603          	lw	a2,244(a5)
8000342c:	dc890513          	addi	a0,s2,-568
80003430:	0b0010ef          	jal	ra,800044e0 <bufWrite>
80003434:	cdc1a783          	lw	a5,-804(gp) # 8000569c <registers_0_addr>
80003438:	4685                	li	a3,1
8000343a:	cb648593          	addi	a1,s1,-842
8000343e:	0f07a603          	lw	a2,240(a5)
80003442:	dc890513          	addi	a0,s2,-568
80003446:	09a010ef          	jal	ra,800044e0 <bufWrite>
8000344a:	cdc1a783          	lw	a5,-804(gp) # 8000569c <registers_0_addr>
8000344e:	4691                	li	a3,4
80003450:	cb648593          	addi	a1,s1,-842
80003454:	0dc7a603          	lw	a2,220(a5)
80003458:	dc890513          	addi	a0,s2,-568
8000345c:	084010ef          	jal	ra,800044e0 <bufWrite>
80003460:	cdc1a783          	lw	a5,-804(gp) # 8000569c <registers_0_addr>
80003464:	4691                	li	a3,4
80003466:	cb648593          	addi	a1,s1,-842
8000346a:	0e07a603          	lw	a2,224(a5)
8000346e:	dc890513          	addi	a0,s2,-568
80003472:	06e010ef          	jal	ra,800044e0 <bufWrite>
80003476:	cdc1a783          	lw	a5,-804(gp) # 8000569c <registers_0_addr>
8000347a:	4691                	li	a3,4
8000347c:	cb648593          	addi	a1,s1,-842
80003480:	0987a603          	lw	a2,152(a5)
80003484:	dc890513          	addi	a0,s2,-568
80003488:	058010ef          	jal	ra,800044e0 <bufWrite>
8000348c:	cdc1a783          	lw	a5,-804(gp) # 8000569c <registers_0_addr>
80003490:	0a07a603          	lw	a2,160(a5)
80003494:	4691                	li	a3,4
80003496:	feaff06f          	j	80002c80 <main+0xc02>
8000349a:	03200793          	li	a5,50
8000349e:	06fb1963          	bne	s6,a5,80003510 <main+0x1492>
800034a2:	80007537          	lui	a0,0x80007
800034a6:	cbc50513          	addi	a0,a0,-836 # 80006cbc <__stack_top+0xffffcd0c>
800034aa:	3b7000ef          	jal	ra,80004060 <readU32fromBytes>
800034ae:	cdc1a783          	lw	a5,-804(gp) # 8000569c <registers_0_addr>
800034b2:	00b44983          	lbu	s3,11(s0)
800034b6:	00a44a03          	lbu	s4,10(s0)
800034ba:	8aaa                	mv	s5,a0
800034bc:	0b37aa23          	sw	s3,180(a5)
800034c0:	0ca7a823          	sw	a0,208(a5)
800034c4:	0b47a223          	sw	s4,164(a5)
800034c8:	06400513          	li	a0,100
800034cc:	3ed000ef          	jal	ra,800040b8 <delayUs>
800034d0:	cb695783          	lhu	a5,-842(s2)
800034d4:	4689                	li	a3,2
800034d6:	4619                	li	a2,6
800034d8:	00178713          	addi	a4,a5,1
800034dc:	cae91b23          	sh	a4,-842(s2)
800034e0:	80008937          	lui	s2,0x80008
800034e4:	dc890713          	addi	a4,s2,-568 # 80007dc8 <__stack_top+0xffffde18>
800034e8:	97ba                	add	a5,a5,a4
800034ea:	cb648593          	addi	a1,s1,-842
800034ee:	dc890513          	addi	a0,s2,-568
800034f2:	01678023          	sb	s6,0(a5)
800034f6:	7eb000ef          	jal	ra,800044e0 <bufWrite>
800034fa:	4691                	li	a3,4
800034fc:	8656                	mv	a2,s5
800034fe:	cb648593          	addi	a1,s1,-842
80003502:	dc890513          	addi	a0,s2,-568
80003506:	7db000ef          	jal	ra,800044e0 <bufWrite>
8000350a:	4685                	li	a3,1
8000350c:	8652                	mv	a2,s4
8000350e:	bb31                	j	8000322a <main+0x11ac>
80003510:	03500793          	li	a5,53
80003514:	06fb1163          	bne	s6,a5,80003576 <main+0x14f8>
80003518:	cdc1a783          	lw	a5,-804(gp) # 8000569c <registers_0_addr>
8000351c:	4689                	li	a3,2
8000351e:	4621                	li	a2,8
80003520:	0d87a783          	lw	a5,216(a5)
80003524:	cb648593          	addi	a1,s1,-842
80003528:	db3e                	sw	a5,180(sp)
8000352a:	4785                	li	a5,1
8000352c:	caf91b23          	sh	a5,-842(s2)
80003530:	80008937          	lui	s2,0x80008
80003534:	dc890513          	addi	a0,s2,-568 # 80007dc8 <__stack_top+0xffffde18>
80003538:	dd690423          	sb	s6,-568(s2)
8000353c:	7a5000ef          	jal	ra,800044e0 <bufWrite>
80003540:	565a                	lw	a2,180(sp)
80003542:	4691                	li	a3,4
80003544:	cb648593          	addi	a1,s1,-842
80003548:	dc890513          	addi	a0,s2,-568
8000354c:	795000ef          	jal	ra,800044e0 <bufWrite>
80003550:	cdc1a783          	lw	a5,-804(gp) # 8000569c <registers_0_addr>
80003554:	4705                	li	a4,1
80003556:	4505                	li	a0,1
80003558:	0ce7a023          	sw	a4,192(a5)
8000355c:	0ce7a423          	sw	a4,200(a5)
80003560:	343000ef          	jal	ra,800040a2 <delay_ms>
80003564:	cdc1a783          	lw	a5,-804(gp) # 8000569c <registers_0_addr>
80003568:	0c07a023          	sw	zero,192(a5)
8000356c:	0d87a783          	lw	a5,216(a5)
80003570:	db3e                	sw	a5,180(sp)
80003572:	565a                	lw	a2,180(sp)
80003574:	b705                	j	80003494 <main+0x1416>
80003576:	03700793          	li	a5,55
8000357a:	00fb1f63          	bne	s6,a5,80003598 <main+0x151a>
8000357e:	cdc1a703          	lw	a4,-804(gp) # 8000569c <registers_0_addr>
80003582:	4785                	li	a5,1
80003584:	caf91b23          	sh	a5,-842(s2)
80003588:	08f72a23          	sw	a5,148(a4)
8000358c:	80008937          	lui	s2,0x80008
80003590:	dd690423          	sb	s6,-568(s2) # 80007dc8 <__stack_top+0xffffde18>
80003594:	e58ff06f          	j	80002bec <main+0xb6e>
80003598:	03300793          	li	a5,51
8000359c:	1efb1f63          	bne	s6,a5,8000379a <main+0x171c>
800035a0:	cdc1a783          	lw	a5,-804(gp) # 8000569c <registers_0_addr>
800035a4:	800089b7          	lui	s3,0x80008
800035a8:	cb690593          	addi	a1,s2,-842
800035ac:	0c47a703          	lw	a4,196(a5)
800035b0:	0d47a703          	lw	a4,212(a5)
800035b4:	0d87a783          	lw	a5,216(a5)
800035b8:	4689                	li	a3,2
800035ba:	4619                	li	a2,6
800035bc:	dd3e                	sw	a5,184(sp)
800035be:	dc898513          	addi	a0,s3,-568 # 80007dc8 <__stack_top+0xffffde18>
800035c2:	4785                	li	a5,1
800035c4:	caf91b23          	sh	a5,-842(s2)
800035c8:	dd698423          	sb	s6,-568(s3)
800035cc:	715000ef          	jal	ra,800044e0 <bufWrite>
800035d0:	566a                	lw	a2,184(sp)
800035d2:	cb690593          	addi	a1,s2,-842
800035d6:	4691                	li	a3,4
800035d8:	dc898513          	addi	a0,s3,-568
800035dc:	705000ef          	jal	ra,800044e0 <bufWrite>
800035e0:	cdc1a783          	lw	a5,-804(gp) # 8000569c <registers_0_addr>
800035e4:	cb690593          	addi	a1,s2,-842
800035e8:	4685                	li	a3,1
800035ea:	0e87a603          	lw	a2,232(a5)
800035ee:	dc898513          	addi	a0,s3,-568
800035f2:	80007ab7          	lui	s5,0x80007
800035f6:	6eb000ef          	jal	ra,800044e0 <bufWrite>
800035fa:	cdc1a783          	lw	a5,-804(gp) # 8000569c <registers_0_addr>
800035fe:	cb690593          	addi	a1,s2,-842
80003602:	4685                	li	a3,1
80003604:	0e47a603          	lw	a2,228(a5)
80003608:	dc898513          	addi	a0,s3,-568
8000360c:	80007a37          	lui	s4,0x80007
80003610:	6d1000ef          	jal	ra,800044e0 <bufWrite>
80003614:	c90a8793          	addi	a5,s5,-880 # 80006c90 <__stack_top+0xffffcce0>
80003618:	43cc                	lw	a1,4(a5)
8000361a:	cb695683          	lhu	a3,-842(s2)
8000361e:	c90aa503          	lw	a0,-880(s5)
80003622:	dc898613          	addi	a2,s3,-568
80003626:	80008937          	lui	s2,0x80008
8000362a:	5a8010ef          	jal	ra,80004bd2 <outBufSend>
8000362e:	6641                	lui	a2,0x10
80003630:	dbc90593          	addi	a1,s2,-580 # 80007dbc <__stack_top+0xffffde0c>
80003634:	4689                	li	a3,2
80003636:	1679                	addi	a2,a2,-2
80003638:	dbca0513          	addi	a0,s4,-580 # 80006dbc <__stack_top+0xffffce0c>
8000363c:	da091e23          	sh	zero,-580(s2)
80003640:	6a1000ef          	jal	ra,800044e0 <bufWrite>
80003644:	dbc95783          	lhu	a5,-580(s2)
80003648:	800085b7          	lui	a1,0x80008
8000364c:	4705                	li	a4,1
8000364e:	58f59c23          	sh	a5,1432(a1) # 80008598 <__stack_top+0xffffe5e8>
80003652:	0789                	addi	a5,a5,2
80003654:	daf91e23          	sh	a5,-580(s2)
80003658:	cdc1a783          	lw	a5,-804(gp) # 8000569c <registers_0_addr>
8000365c:	6bc1                	lui	s7,0x10
8000365e:	08000d13          	li	s10,128
80003662:	0ce7a023          	sw	a4,192(a5)
80003666:	8dae                	mv	s11,a1
80003668:	4b05                	li	s6,1
8000366a:	fffb8c13          	addi	s8,s7,-1 # ffff <HEAP_SIZE+0xefff>
8000366e:	cdc1a783          	lw	a5,-804(gp) # 8000569c <registers_0_addr>
80003672:	06400513          	li	a0,100
80003676:	1d7d                	addi	s10,s10,-1
80003678:	0f67a623          	sw	s6,236(a5)
8000367c:	23d000ef          	jal	ra,800040b8 <delayUs>
80003680:	cdc1a783          	lw	a5,-804(gp) # 8000569c <registers_0_addr>
80003684:	06400513          	li	a0,100
80003688:	0d42                	slli	s10,s10,0x10
8000368a:	0dc7a703          	lw	a4,220(a5)
8000368e:	010d5d13          	srli	s10,s10,0x10
80003692:	df3a                	sw	a4,188(sp)
80003694:	0e07a783          	lw	a5,224(a5)
80003698:	c1be                	sw	a5,192(sp)
8000369a:	21f000ef          	jal	ra,800040b8 <delayUs>
8000369e:	567a                	lw	a2,188(sp)
800036a0:	4689                	li	a3,2
800036a2:	dbc90593          	addi	a1,s2,-580
800036a6:	8241                	srli	a2,a2,0x10
800036a8:	dbca0513          	addi	a0,s4,-580
800036ac:	635000ef          	jal	ra,800044e0 <bufWrite>
800036b0:	567a                	lw	a2,188(sp)
800036b2:	4689                	li	a3,2
800036b4:	dbc90593          	addi	a1,s2,-580
800036b8:	01867633          	and	a2,a2,s8
800036bc:	dbca0513          	addi	a0,s4,-580
800036c0:	621000ef          	jal	ra,800044e0 <bufWrite>
800036c4:	460e                	lw	a2,192(sp)
800036c6:	4689                	li	a3,2
800036c8:	dbc90593          	addi	a1,s2,-580
800036cc:	8241                	srli	a2,a2,0x10
800036ce:	dbca0513          	addi	a0,s4,-580
800036d2:	60f000ef          	jal	ra,800044e0 <bufWrite>
800036d6:	460e                	lw	a2,192(sp)
800036d8:	4689                	li	a3,2
800036da:	dbc90593          	addi	a1,s2,-580
800036de:	01867633          	and	a2,a2,s8
800036e2:	dbca0513          	addi	a0,s4,-580
800036e6:	5fb000ef          	jal	ra,800044e0 <bufWrite>
800036ea:	f80d12e3          	bnez	s10,8000366e <main+0x15f0>
800036ee:	dbc95603          	lhu	a2,-580(s2)
800036f2:	4689                	li	a3,2
800036f4:	598d8593          	addi	a1,s11,1432
800036f8:	1671                	addi	a2,a2,-4
800036fa:	dbca0513          	addi	a0,s4,-580
800036fe:	5e3000ef          	jal	ra,800044e0 <bufWrite>
80003702:	dbc95603          	lhu	a2,-580(s2)
80003706:	dbca0593          	addi	a1,s4,-580
8000370a:	c90a8513          	addi	a0,s5,-880
8000370e:	cddfc0ef          	jal	ra,800003ea <UART_send>
80003712:	4689                	li	a3,2
80003714:	ffbb8613          	addi	a2,s7,-5
80003718:	dbc90593          	addi	a1,s2,-580
8000371c:	dbca0513          	addi	a0,s4,-580
80003720:	da091e23          	sh	zero,-580(s2)
80003724:	5bd000ef          	jal	ra,800044e0 <bufWrite>
80003728:	4609                	li	a2,2
8000372a:	dbca0593          	addi	a1,s4,-580
8000372e:	c90a8513          	addi	a0,s5,-880
80003732:	cb9fc0ef          	jal	ra,800003ea <UART_send>
80003736:	cdc1a783          	lw	a5,-804(gp) # 8000569c <registers_0_addr>
8000373a:	4689                	li	a3,2
8000373c:	4609                	li	a2,2
8000373e:	0c07a023          	sw	zero,192(a5)
80003742:	cb648593          	addi	a1,s1,-842
80003746:	03300793          	li	a5,51
8000374a:	dc898513          	addi	a0,s3,-568
8000374e:	dcf98423          	sb	a5,-568(s3)
80003752:	cb649b23          	sh	s6,-842(s1)
80003756:	58b000ef          	jal	ra,800044e0 <bufWrite>
8000375a:	cdc1a783          	lw	a5,-804(gp) # 8000569c <registers_0_addr>
8000375e:	4685                	li	a3,1
80003760:	cb648593          	addi	a1,s1,-842
80003764:	0e87a603          	lw	a2,232(a5)
80003768:	dc898513          	addi	a0,s3,-568
8000376c:	575000ef          	jal	ra,800044e0 <bufWrite>
80003770:	cdc1a783          	lw	a5,-804(gp) # 8000569c <registers_0_addr>
80003774:	cb648593          	addi	a1,s1,-842
80003778:	dc898513          	addi	a0,s3,-568
8000377c:	0e47a603          	lw	a2,228(a5)
80003780:	4685                	li	a3,1
80003782:	55f000ef          	jal	ra,800044e0 <bufWrite>
80003786:	cb64d603          	lhu	a2,-842(s1)
8000378a:	dc898593          	addi	a1,s3,-568
8000378e:	c90a8513          	addi	a0,s5,-880
80003792:	c59fc0ef          	jal	ra,800003ea <UART_send>
80003796:	9b4ff06f          	j	8000294a <main+0x8cc>
8000379a:	03e00793          	li	a5,62
8000379e:	08fb1d63          	bne	s6,a5,80003838 <main+0x17ba>
800037a2:	80007537          	lui	a0,0x80007
800037a6:	cbc50513          	addi	a0,a0,-836 # 80006cbc <__stack_top+0xffffcd0c>
800037aa:	0a9000ef          	jal	ra,80004052 <readU16fromBytes>
800037ae:	4681                	li	a3,0
800037b0:	892a                	mv	s2,a0
800037b2:	4601                	li	a2,0
800037b4:	4581                	li	a1,0
800037b6:	4505                	li	a0,1
800037b8:	119000ef          	jal	ra,800040d0 <DCS_pass_sim_param>
800037bc:	4601                	li	a2,0
800037be:	4581                	li	a1,0
800037c0:	854a                	mv	a0,s2
800037c2:	131000ef          	jal	ra,800040f2 <DCS_pass_addr_data>
800037c6:	145000ef          	jal	ra,8000410a <DCS_sim_packet_send>
800037ca:	4529                	li	a0,10
800037cc:	0d7000ef          	jal	ra,800040a2 <delay_ms>
800037d0:	cdc1a783          	lw	a5,-804(gp) # 8000569c <registers_0_addr>
800037d4:	4681                	li	a3,0
800037d6:	4601                	li	a2,0
800037d8:	4581                	li	a1,0
800037da:	4501                	li	a0,0
800037dc:	1647a903          	lw	s2,356(a5)
800037e0:	0f1000ef          	jal	ra,800040d0 <DCS_pass_sim_param>
800037e4:	cb64d783          	lhu	a5,-842(s1)
800037e8:	800089b7          	lui	s3,0x80008
800037ec:	cb648593          	addi	a1,s1,-842
800037f0:	00178713          	addi	a4,a5,1
800037f4:	cae49b23          	sh	a4,-842(s1)
800037f8:	dc898713          	addi	a4,s3,-568 # 80007dc8 <__stack_top+0xffffde18>
800037fc:	97ba                	add	a5,a5,a4
800037fe:	dc898513          	addi	a0,s3,-568
80003802:	4689                	li	a3,2
80003804:	4611                	li	a2,4
80003806:	01678023          	sb	s6,0(a5)
8000380a:	4d7000ef          	jal	ra,800044e0 <bufWrite>
8000380e:	01095613          	srli	a2,s2,0x10
80003812:	cb648593          	addi	a1,s1,-842
80003816:	dc898513          	addi	a0,s3,-568
8000381a:	4689                	li	a3,2
8000381c:	4c5000ef          	jal	ra,800044e0 <bufWrite>
80003820:	01091613          	slli	a2,s2,0x10
80003824:	4689                	li	a3,2
80003826:	8241                	srli	a2,a2,0x10
80003828:	cb648593          	addi	a1,s1,-842
8000382c:	dc898513          	addi	a0,s3,-568
80003830:	4b1000ef          	jal	ra,800044e0 <bufWrite>
80003834:	e66ff06f          	j	80002e9a <main+0xe1c>
80003838:	03f00793          	li	a5,63
8000383c:	08fb1963          	bne	s6,a5,800038ce <main+0x1850>
80003840:	80007537          	lui	a0,0x80007
80003844:	cbc50513          	addi	a0,a0,-836 # 80006cbc <__stack_top+0xffffcd0c>
80003848:	00b000ef          	jal	ra,80004052 <readU16fromBytes>
8000384c:	89aa                	mv	s3,a0
8000384e:	80007537          	lui	a0,0x80007
80003852:	cbe50513          	addi	a0,a0,-834 # 80006cbe <__stack_top+0xffffcd0e>
80003856:	7fc000ef          	jal	ra,80004052 <readU16fromBytes>
8000385a:	4681                	li	a3,0
8000385c:	892a                	mv	s2,a0
8000385e:	4605                	li	a2,1
80003860:	4581                	li	a1,0
80003862:	4505                	li	a0,1
80003864:	06d000ef          	jal	ra,800040d0 <DCS_pass_sim_param>
80003868:	4601                	li	a2,0
8000386a:	4581                	li	a1,0
8000386c:	854e                	mv	a0,s3
8000386e:	085000ef          	jal	ra,800040f2 <DCS_pass_addr_data>
80003872:	4605                	li	a2,1
80003874:	4581                	li	a1,0
80003876:	854a                	mv	a0,s2
80003878:	07b000ef          	jal	ra,800040f2 <DCS_pass_addr_data>
8000387c:	08f000ef          	jal	ra,8000410a <DCS_sim_packet_send>
80003880:	4681                	li	a3,0
80003882:	4601                	li	a2,0
80003884:	4581                	li	a1,0
80003886:	4501                	li	a0,0
80003888:	049000ef          	jal	ra,800040d0 <DCS_pass_sim_param>
8000388c:	cb64d783          	lhu	a5,-842(s1)
80003890:	80008a37          	lui	s4,0x80008
80003894:	4689                	li	a3,2
80003896:	00178713          	addi	a4,a5,1
8000389a:	cae49b23          	sh	a4,-842(s1)
8000389e:	dc8a0713          	addi	a4,s4,-568 # 80007dc8 <__stack_top+0xffffde18>
800038a2:	97ba                	add	a5,a5,a4
800038a4:	4611                	li	a2,4
800038a6:	cb648593          	addi	a1,s1,-842
800038aa:	dc8a0513          	addi	a0,s4,-568
800038ae:	01678023          	sb	s6,0(a5)
800038b2:	42f000ef          	jal	ra,800044e0 <bufWrite>
800038b6:	4689                	li	a3,2
800038b8:	864e                	mv	a2,s3
800038ba:	cb648593          	addi	a1,s1,-842
800038be:	dc8a0513          	addi	a0,s4,-568
800038c2:	41f000ef          	jal	ra,800044e0 <bufWrite>
800038c6:	4689                	li	a3,2
800038c8:	864a                	mv	a2,s2
800038ca:	952ff06f          	j	80002a1c <main+0x99e>
800038ce:	06700793          	li	a5,103
800038d2:	00fb1663          	bne	s6,a5,800038de <main+0x1860>
800038d6:	e95fd0ef          	jal	ra,8000176a <autobitslip>
800038da:	870ff06f          	j	8000294a <main+0x8cc>
800038de:	06800793          	li	a5,104
800038e2:	0afb1663          	bne	s6,a5,8000398e <main+0x1910>
800038e6:	80007537          	lui	a0,0x80007
800038ea:	cbc50513          	addi	a0,a0,-836 # 80006cbc <__stack_top+0xffffcd0c>
800038ee:	764000ef          	jal	ra,80004052 <readU16fromBytes>
800038f2:	8a2a                	mv	s4,a0
800038f4:	80007537          	lui	a0,0x80007
800038f8:	cbe50513          	addi	a0,a0,-834 # 80006cbe <__stack_top+0xffffcd0e>
800038fc:	756000ef          	jal	ra,80004052 <readU16fromBytes>
80003900:	8aaa                	mv	s5,a0
80003902:	80007537          	lui	a0,0x80007
80003906:	cc050513          	addi	a0,a0,-832 # 80006cc0 <__stack_top+0xffffcd10>
8000390a:	756000ef          	jal	ra,80004060 <readU32fromBytes>
8000390e:	c0a1a623          	sw	a0,-1012(gp) # 800055cc <channel_mask>
80003912:	80007537          	lui	a0,0x80007
80003916:	cc450513          	addi	a0,a0,-828 # 80006cc4 <__stack_top+0xffffcd14>
8000391a:	746000ef          	jal	ra,80004060 <readU32fromBytes>
8000391e:	c0c18913          	addi	s2,gp,-1012 # 800055cc <channel_mask>
80003922:	00a92223          	sw	a0,4(s2)
80003926:	80007537          	lui	a0,0x80007
8000392a:	cc850513          	addi	a0,a0,-824 # 80006cc8 <__stack_top+0xffffcd18>
8000392e:	732000ef          	jal	ra,80004060 <readU32fromBytes>
80003932:	cb64d703          	lhu	a4,-842(s1)
80003936:	00a92423          	sw	a0,8(s2)
8000393a:	80008937          	lui	s2,0x80008
8000393e:	00170793          	addi	a5,a4,1
80003942:	dc890693          	addi	a3,s2,-568 # 80007dc8 <__stack_top+0xffffde18>
80003946:	9736                	add	a4,a4,a3
80003948:	07c2                	slli	a5,a5,0x10
8000394a:	06800693          	li	a3,104
8000394e:	83c1                	srli	a5,a5,0x10
80003950:	00d70023          	sb	a3,0(a4)
80003954:	800079b7          	lui	s3,0x80007
80003958:	4689                	li	a3,2
8000395a:	4601                	li	a2,0
8000395c:	cb648593          	addi	a1,s1,-842
80003960:	dc890513          	addi	a0,s2,-568
80003964:	caf49b23          	sh	a5,-842(s1)
80003968:	c8f99623          	sh	a5,-884(s3) # 80006c8c <__stack_top+0xffffccdc>
8000396c:	375000ef          	jal	ra,800044e0 <bufWrite>
80003970:	4681                	li	a3,0
80003972:	0ff00613          	li	a2,255
80003976:	85d6                	mv	a1,s5
80003978:	8552                	mv	a0,s4
8000397a:	723000ef          	jal	ra,8000489c <get_rates>
8000397e:	cb64d603          	lhu	a2,-842(s1)
80003982:	4689                	li	a3,2
80003984:	c8c98593          	addi	a1,s3,-884
80003988:	1675                	addi	a2,a2,-3
8000398a:	afaff06f          	j	80002c84 <main+0xc06>
8000398e:	06900793          	li	a5,105
80003992:	4afb1263          	bne	s6,a5,80003e36 <main+0x1db8>
80003996:	cdc1a783          	lw	a5,-804(gp) # 8000569c <registers_0_addr>
8000399a:	4a85                	li	s5,1
8000399c:	4505                	li	a0,1
8000399e:	3b57ac23          	sw	s5,952(a5)
800039a2:	716000ef          	jal	ra,800040b8 <delayUs>
800039a6:	cdc1a783          	lw	a5,-804(gp) # 8000569c <registers_0_addr>
800039aa:	80007537          	lui	a0,0x80007
800039ae:	cbe50513          	addi	a0,a0,-834 # 80006cbe <__stack_top+0xffffcd0e>
800039b2:	3a07ac23          	sw	zero,952(a5)
800039b6:	00544783          	lbu	a5,5(s0)
800039ba:	00444a03          	lbu	s4,4(s0)
800039be:	dc3e                	sw	a5,56(sp)
800039c0:	03815783          	lhu	a5,56(sp)
800039c4:	c4be                	sw	a5,72(sp)
800039c6:	68c000ef          	jal	ra,80004052 <readU16fromBytes>
800039ca:	8b2a                	mv	s6,a0
800039cc:	80007537          	lui	a0,0x80007
800039d0:	cc050513          	addi	a0,a0,-832 # 80006cc0 <__stack_top+0xffffcd10>
800039d4:	67e000ef          	jal	ra,80004052 <readU16fromBytes>
800039d8:	8baa                	mv	s7,a0
800039da:	80007537          	lui	a0,0x80007
800039de:	cc250513          	addi	a0,a0,-830 # 80006cc2 <__stack_top+0xffffcd12>
800039e2:	67e000ef          	jal	ra,80004060 <readU32fromBytes>
800039e6:	8d2a                	mv	s10,a0
800039e8:	80007537          	lui	a0,0x80007
800039ec:	cc650513          	addi	a0,a0,-826 # 80006cc6 <__stack_top+0xffffcd16>
800039f0:	670000ef          	jal	ra,80004060 <readU32fromBytes>
800039f4:	c0a1a623          	sw	a0,-1012(gp) # 800055cc <channel_mask>
800039f8:	80007537          	lui	a0,0x80007
800039fc:	cca50513          	addi	a0,a0,-822 # 80006cca <__stack_top+0xffffcd1a>
80003a00:	660000ef          	jal	ra,80004060 <readU32fromBytes>
80003a04:	c0c18493          	addi	s1,gp,-1012 # 800055cc <channel_mask>
80003a08:	c0c8                	sw	a0,4(s1)
80003a0a:	80007537          	lui	a0,0x80007
80003a0e:	cce50513          	addi	a0,a0,-818 # 80006cce <__stack_top+0xffffcd1e>
80003a12:	64e000ef          	jal	ra,80004060 <readU32fromBytes>
80003a16:	01a44783          	lbu	a5,26(s0)
80003a1a:	c488                	sw	a0,8(s1)
80003a1c:	80007537          	lui	a0,0x80007
80003a20:	cd450513          	addi	a0,a0,-812 # 80006cd4 <__stack_top+0xffffcd24>
80003a24:	d23e                	sw	a5,36(sp)
80003a26:	01b44983          	lbu	s3,27(s0)
80003a2a:	628000ef          	jal	ra,80004052 <readU16fromBytes>
80003a2e:	01e44783          	lbu	a5,30(s0)
80003a32:	8daa                	mv	s11,a0
80003a34:	0017f713          	andi	a4,a5,1
80003a38:	3c070763          	beqz	a4,80003e06 <main+0x1d88>
80003a3c:	cdc1a703          	lw	a4,-804(gp) # 8000569c <registers_0_addr>
80003a40:	2d572023          	sw	s5,704(a4)
80003a44:	8b89                	andi	a5,a5,2
80003a46:	cdc1a703          	lw	a4,-804(gp) # 8000569c <registers_0_addr>
80003a4a:	3c078363          	beqz	a5,80003e10 <main+0x1d92>
80003a4e:	4785                	li	a5,1
80003a50:	2cf72223          	sw	a5,708(a4)
80003a54:	09c2                	slli	s3,s3,0x10
80003a56:	0109d993          	srli	s3,s3,0x10
80003a5a:	4601                	li	a2,0
80003a5c:	85ce                	mv	a1,s3
80003a5e:	4531                	li	a0,12
80003a60:	6c6000ef          	jal	ra,80004126 <digi_write>
80003a64:	1ad000ef          	jal	ra,80004410 <get_mapped_channels>
80003a68:	4781                	li	a5,0
80003a6a:	00418613          	addi	a2,gp,4 # 800059c4 <mapped_channel_mask>
80003a6e:	46b1                	li	a3,12
80003a70:	ffc7f713          	andi	a4,a5,-4
80003a74:	9732                	add	a4,a4,a2
80003a76:	4318                	lw	a4,0(a4)
80003a78:	0785                	addi	a5,a5,1
80003a7a:	fed79be3          	bne	a5,a3,80003a70 <main+0x19f2>
80003a7e:	4c01                	li	s8,0
80003a80:	c0018a93          	addi	s5,gp,-1024 # 800055c0 <__sbss_end>
80003a84:	4785                	li	a5,1
80003a86:	018797b3          	sll	a5,a5,s8
80003a8a:	01079c93          	slli	s9,a5,0x10
80003a8e:	5792                	lw	a5,36(sp)
80003a90:	06200713          	li	a4,98
80003a94:	010cdc93          	srli	s9,s9,0x10
80003a98:	36f76f63          	bltu	a4,a5,80003e16 <main+0x1d98>
80003a9c:	8666                	mv	a2,s9
80003a9e:	85be                	mv	a1,a5
80003aa0:	4559                	li	a0,22
80003aa2:	10b000ef          	jal	ra,800043ac <adc_write>
80003aa6:	8666                	mv	a2,s9
80003aa8:	85d2                	mv	a1,s4
80003aaa:	4535                	li	a0,13
80003aac:	101000ef          	jal	ra,800043ac <adc_write>
80003ab0:	0c05                	addi	s8,s8,1
80003ab2:	47b1                	li	a5,12
80003ab4:	fcfc18e3          	bne	s8,a5,80003a84 <main+0x1a06>
80003ab8:	4785                	li	a5,1
80003aba:	80005ab7          	lui	s5,0x80005
80003abe:	1cfa81a3          	sb	a5,451(s5) # 800051c3 <__stack_top+0xffffb213>
80003ac2:	14f000ef          	jal	ra,80004410 <get_mapped_channels>
80003ac6:	4601                	li	a2,0
80003ac8:	4581                	li	a1,0
80003aca:	453d                	li	a0,15
80003acc:	65a000ef          	jal	ra,80004126 <digi_write>
80003ad0:	4601                	li	a2,0
80003ad2:	85de                	mv	a1,s7
80003ad4:	450d                	li	a0,3
80003ad6:	650000ef          	jal	ra,80004126 <digi_write>
80003ada:	4601                	li	a2,0
80003adc:	85da                	mv	a1,s6
80003ade:	4511                	li	a0,4
80003ae0:	646000ef          	jal	ra,80004126 <digi_write>
80003ae4:	0041a583          	lw	a1,4(gp) # 800059c4 <mapped_channel_mask>
80003ae8:	4605                	li	a2,1
80003aea:	452d                	li	a0,11
80003aec:	05c2                	slli	a1,a1,0x10
80003aee:	81c1                	srli	a1,a1,0x10
80003af0:	636000ef          	jal	ra,80004126 <digi_write>
80003af4:	0041a583          	lw	a1,4(gp) # 800059c4 <mapped_channel_mask>
80003af8:	4605                	li	a2,1
80003afa:	4539                	li	a0,14
80003afc:	81c1                	srli	a1,a1,0x10
80003afe:	628000ef          	jal	ra,80004126 <digi_write>
80003b02:	00418493          	addi	s1,gp,4 # 800059c4 <mapped_channel_mask>
80003b06:	40cc                	lw	a1,4(s1)
80003b08:	4605                	li	a2,1
80003b0a:	4535                	li	a0,13
80003b0c:	05c2                	slli	a1,a1,0x10
80003b0e:	81c1                	srli	a1,a1,0x10
80003b10:	616000ef          	jal	ra,80004126 <digi_write>
80003b14:	40cc                	lw	a1,4(s1)
80003b16:	4609                	li	a2,2
80003b18:	452d                	li	a0,11
80003b1a:	81c1                	srli	a1,a1,0x10
80003b1c:	60a000ef          	jal	ra,80004126 <digi_write>
80003b20:	448c                	lw	a1,8(s1)
80003b22:	4609                	li	a2,2
80003b24:	4539                	li	a0,14
80003b26:	05c2                	slli	a1,a1,0x10
80003b28:	81c1                	srli	a1,a1,0x10
80003b2a:	5fc000ef          	jal	ra,80004126 <digi_write>
80003b2e:	448c                	lw	a1,8(s1)
80003b30:	4609                	li	a2,2
80003b32:	4535                	li	a0,13
80003b34:	81c1                	srli	a1,a1,0x10
80003b36:	5f0000ef          	jal	ra,80004126 <digi_write>
80003b3a:	45a6                	lw	a1,72(sp)
80003b3c:	4601                	li	a2,0
80003b3e:	4529                	li	a0,10
80003b40:	5e6000ef          	jal	ra,80004126 <digi_write>
80003b44:	85ce                	mv	a1,s3
80003b46:	4601                	li	a2,0
80003b48:	4531                	li	a0,12
80003b4a:	5dc000ef          	jal	ra,80004126 <digi_write>
80003b4e:	cdc1a783          	lw	a5,-804(gp) # 8000569c <registers_0_addr>
80003b52:	89d6                	mv	s3,s5
80003b54:	2007a223          	sw	zero,516(a5)
80003b58:	1177ac23          	sw	s7,280(a5)
80003b5c:	449c                	lw	a5,8(s1)
80003b5e:	e781                	bnez	a5,80003b66 <main+0x1ae8>
80003b60:	40dc                	lw	a5,4(s1)
80003b62:	83c1                	srli	a5,a5,0x10
80003b64:	c781                	beqz	a5,80003b6c <main+0x1aee>
80003b66:	4789                	li	a5,2
80003b68:	1cf981a3          	sb	a5,451(s3)
80003b6c:	1c39c583          	lbu	a1,451(s3)
80003b70:	450d                	li	a0,3
80003b72:	618000ef          	jal	ra,8000418a <digi_read>
80003b76:	1c39c583          	lbu	a1,451(s3)
80003b7a:	8aaa                	mv	s5,a0
80003b7c:	4531                	li	a0,12
80003b7e:	60c000ef          	jal	ra,8000418a <digi_read>
80003b82:	0ff57793          	andi	a5,a0,255
80003b86:	8baa                	mv	s7,a0
80003b88:	28079d63          	bnez	a5,80003e22 <main+0x1da4>
80003b8c:	4c4147b7          	lui	a5,0x4c414
80003b90:	55278793          	addi	a5,a5,1362 # 4c414552 <RAM_SIZE+0x4c3f4552>
80003b94:	10f12823          	sw	a5,272(sp)
80003b98:	6789                	lui	a5,0x2
80003b9a:	02078793          	addi	a5,a5,32 # 2020 <HEAP_SIZE+0x1020>
80003b9e:	80007c37          	lui	s8,0x80007
80003ba2:	cb6c5703          	lhu	a4,-842(s8) # 80006cb6 <__stack_top+0xffffcd06>
80003ba6:	800084b7          	lui	s1,0x80008
80003baa:	10f11a23          	sh	a5,276(sp)
80003bae:	dc848c93          	addi	s9,s1,-568 # 80007dc8 <__stack_top+0xffffde18>
80003bb2:	00170793          	addi	a5,a4,1
80003bb6:	cafc1b23          	sh	a5,-842(s8)
80003bba:	9766                	add	a4,a4,s9
80003bbc:	06900793          	li	a5,105
80003bc0:	4689                	li	a3,2
80003bc2:	02300613          	li	a2,35
80003bc6:	cb6c0593          	addi	a1,s8,-842
80003bca:	dc848513          	addi	a0,s1,-568
80003bce:	00f70023          	sb	a5,0(a4)
80003bd2:	10010b23          	sb	zero,278(sp)
80003bd6:	10b000ef          	jal	ra,800044e0 <bufWrite>
80003bda:	cb6c5783          	lhu	a5,-842(s8)
80003bde:	4689                	li	a3,2
80003be0:	8656                	mv	a2,s5
80003be2:	00178713          	addi	a4,a5,1
80003be6:	cb6c0593          	addi	a1,s8,-842
80003bea:	97e6                	add	a5,a5,s9
80003bec:	dc848513          	addi	a0,s1,-568
80003bf0:	caec1b23          	sh	a4,-842(s8)
80003bf4:	01778023          	sb	s7,0(a5)
80003bf8:	0e9000ef          	jal	ra,800044e0 <bufWrite>
80003bfc:	865a                	mv	a2,s6
80003bfe:	4689                	li	a3,2
80003c00:	cb6c0593          	addi	a1,s8,-842
80003c04:	dc848513          	addi	a0,s1,-568
80003c08:	0d9000ef          	jal	ra,800044e0 <bufWrite>
80003c0c:	c0c1a603          	lw	a2,-1012(gp) # 800055cc <channel_mask>
80003c10:	4691                	li	a3,4
80003c12:	cb6c0593          	addi	a1,s8,-842
80003c16:	dc848513          	addi	a0,s1,-568
80003c1a:	0c7000ef          	jal	ra,800044e0 <bufWrite>
80003c1e:	8652                	mv	a2,s4
80003c20:	4689                	li	a3,2
80003c22:	cb6c0593          	addi	a1,s8,-842
80003c26:	dc848513          	addi	a0,s1,-568
80003c2a:	0b7000ef          	jal	ra,800044e0 <bufWrite>
80003c2e:	5662                	lw	a2,56(sp)
80003c30:	4689                	li	a3,2
80003c32:	cb6c0593          	addi	a1,s8,-842
80003c36:	dc848513          	addi	a0,s1,-568
80003c3a:	0a7000ef          	jal	ra,800044e0 <bufWrite>
80003c3e:	cb6c5783          	lhu	a5,-842(s8)
80003c42:	4701                	li	a4,0
80003c44:	8a62                	mv	s4,s8
80003c46:	dc848b13          	addi	s6,s1,-568
80003c4a:	4621                	li	a2,8
80003c4c:	0a0c                	addi	a1,sp,272
80003c4e:	00e786b3          	add	a3,a5,a4
80003c52:	95ba                	add	a1,a1,a4
80003c54:	06c2                	slli	a3,a3,0x10
80003c56:	0005c583          	lbu	a1,0(a1)
80003c5a:	82c1                	srli	a3,a3,0x10
80003c5c:	96da                	add	a3,a3,s6
80003c5e:	00b68023          	sb	a1,0(a3)
80003c62:	0705                	addi	a4,a4,1
80003c64:	fec714e3          	bne	a4,a2,80003c4c <main+0x1bce>
80003c68:	00978713          	addi	a4,a5,9
80003c6c:	07a1                	addi	a5,a5,8
80003c6e:	caea1b23          	sh	a4,-842(s4)
80003c72:	07c2                	slli	a5,a5,0x10
80003c74:	5712                	lw	a4,36(sp)
80003c76:	83c1                	srli	a5,a5,0x10
80003c78:	97da                	add	a5,a5,s6
80003c7a:	4691                	li	a3,4
80003c7c:	866a                	mv	a2,s10
80003c7e:	cb6a0593          	addi	a1,s4,-842
80003c82:	dc848513          	addi	a0,s1,-568
80003c86:	00e78023          	sb	a4,0(a5)
80003c8a:	057000ef          	jal	ra,800044e0 <bufWrite>
80003c8e:	1c39c583          	lbu	a1,451(s3)
80003c92:	452d                	li	a0,11
80003c94:	6c09                	lui	s8,0x2
80003c96:	4f4000ef          	jal	ra,8000418a <digi_read>
80003c9a:	862a                	mv	a2,a0
80003c9c:	4689                	li	a3,2
80003c9e:	cb6a0593          	addi	a1,s4,-842
80003ca2:	dc848513          	addi	a0,s1,-568
80003ca6:	03b000ef          	jal	ra,800044e0 <bufWrite>
80003caa:	1c39c583          	lbu	a1,451(s3)
80003cae:	4539                	li	a0,14
80003cb0:	0a8a                	slli	s5,s5,0x2
80003cb2:	4d8000ef          	jal	ra,8000418a <digi_read>
80003cb6:	862a                	mv	a2,a0
80003cb8:	4689                	li	a3,2
80003cba:	cb6a0593          	addi	a1,s4,-842
80003cbe:	dc848513          	addi	a0,s1,-568
80003cc2:	01f000ef          	jal	ra,800044e0 <bufWrite>
80003cc6:	1c39c583          	lbu	a1,451(s3)
80003cca:	4535                	li	a0,13
80003ccc:	0a95                	addi	s5,s5,5
80003cce:	4bc000ef          	jal	ra,8000418a <digi_read>
80003cd2:	862a                	mv	a2,a0
80003cd4:	4689                	li	a3,2
80003cd6:	cb6a0593          	addi	a1,s4,-842
80003cda:	dc848513          	addi	a0,s1,-568
80003cde:	003000ef          	jal	ra,800044e0 <bufWrite>
80003ce2:	1c39c583          	lbu	a1,451(s3)
80003ce6:	4531                	li	a0,12
80003ce8:	800079b7          	lui	s3,0x80007
80003cec:	49e000ef          	jal	ra,8000418a <digi_read>
80003cf0:	862a                	mv	a2,a0
80003cf2:	4689                	li	a3,2
80003cf4:	cb6a0593          	addi	a1,s4,-842
80003cf8:	dc848513          	addi	a0,s1,-568
80003cfc:	7e4000ef          	jal	ra,800044e0 <bufWrite>
80003d00:	cb6a5783          	lhu	a5,-842(s4)
80003d04:	c909a503          	lw	a0,-880(s3) # 80006c90 <__stack_top+0xffffcce0>
80003d08:	dc848613          	addi	a2,s1,-568
80003d0c:	00178693          	addi	a3,a5,1
80003d10:	97da                	add	a5,a5,s6
80003d12:	00078023          	sb	zero,0(a5)
80003d16:	c9098793          	addi	a5,s3,-880
80003d1a:	43cc                	lw	a1,4(a5)
80003d1c:	06c2                	slli	a3,a3,0x10
80003d1e:	82c1                	srli	a3,a3,0x10
80003d20:	cada1b23          	sh	a3,-842(s4)
80003d24:	6af000ef          	jal	ra,80004bd2 <outBufSend>
80003d28:	710c0513          	addi	a0,s8,1808 # 2710 <HEAP_SIZE+0x1710>
80003d2c:	38c000ef          	jal	ra,800040b8 <delayUs>
80003d30:	cdc1a783          	lw	a5,-804(gp) # 8000569c <registers_0_addr>
80003d34:	473d                	li	a4,15
80003d36:	12e7a023          	sw	a4,288(a5)
80003d3a:	6c5000ef          	jal	ra,80004bfe <resetFIFO>
80003d3e:	6c1000ef          	jal	ra,80004bfe <resetFIFO>
80003d42:	710c0513          	addi	a0,s8,1808
80003d46:	372000ef          	jal	ra,800040b8 <delayUs>
80003d4a:	cdc1a783          	lw	a5,-804(gp) # 8000569c <registers_0_addr>
80003d4e:	4905                	li	s2,1
80003d50:	4601                	li	a2,0
80003d52:	2127a223          	sw	s2,516(a5)
80003d56:	0ffbf593          	andi	a1,s7,255
80003d5a:	453d                	li	a0,15
80003d5c:	3ca000ef          	jal	ra,80004126 <digi_write>
80003d60:	800087b7          	lui	a5,0x80008
80003d64:	da079e23          	sh	zero,-580(a5) # 80007dbc <__stack_top+0xffffde0c>
80003d68:	001d9793          	slli	a5,s11,0x1
80003d6c:	97ee                	add	a5,a5,s11
80003d6e:	078e                	slli	a5,a5,0x3
80003d70:	97ee                	add	a5,a5,s11
80003d72:	80008737          	lui	a4,0x80008
80003d76:	0786                	slli	a5,a5,0x1
80003d78:	70f72e23          	sw	a5,1820(a4) # 8000871c <__stack_top+0xffffe76c>
80003d7c:	800087b7          	lui	a5,0x80008
80003d80:	dc07a223          	sw	zero,-572(a5) # 80007dc4 <__stack_top+0xffffde14>
80003d84:	800087b7          	lui	a5,0x80008
80003d88:	7b57a023          	sw	s5,1952(a5) # 800087a0 <__stack_top+0xffffe7f0>
80003d8c:	800077b7          	lui	a5,0x80007
80003d90:	dba7ac23          	sw	s10,-584(a5) # 80006db8 <__stack_top+0xffffce08>
80003d94:	09cc                	addi	a1,sp,212
80003d96:	800077b7          	lui	a5,0x80007
80003d9a:	01c8                	addi	a0,sp,196
80003d9c:	c807a023          	sw	zero,-896(a5) # 80006c80 <__stack_top+0xffffccd0>
80003da0:	c382                	sw	zero,196(sp)
80003da2:	cb82                	sw	zero,212(sp)
80003da4:	09f000ef          	jal	ra,80004642 <read_data>
80003da8:	06900793          	li	a5,105
80003dac:	4689                	li	a3,2
80003dae:	4615                	li	a2,5
80003db0:	cb6a0593          	addi	a1,s4,-842
80003db4:	dc848513          	addi	a0,s1,-568
80003db8:	dcf48423          	sb	a5,-568(s1)
80003dbc:	cb2a1b23          	sh	s2,-842(s4)
80003dc0:	720000ef          	jal	ra,800044e0 <bufWrite>
80003dc4:	cb6a5783          	lhu	a5,-842(s4)
80003dc8:	465e                	lw	a2,212(sp)
80003dca:	4691                	li	a3,4
80003dcc:	00178713          	addi	a4,a5,1
80003dd0:	9b3e                	add	s6,s6,a5
80003dd2:	40cd07b3          	sub	a5,s10,a2
80003dd6:	0017b793          	seqz	a5,a5
80003dda:	caea1b23          	sh	a4,-842(s4)
80003dde:	00fb0023          	sb	a5,0(s6)
80003de2:	00cd1363          	bne	s10,a2,80003de8 <main+0x1d6a>
80003de6:	461e                	lw	a2,196(sp)
80003de8:	cb6a0593          	addi	a1,s4,-842
80003dec:	dc848513          	addi	a0,s1,-568
80003df0:	6f0000ef          	jal	ra,800044e0 <bufWrite>
80003df4:	800085b7          	lui	a1,0x80008
80003df8:	cb6a5603          	lhu	a2,-842(s4)
80003dfc:	dc858593          	addi	a1,a1,-568 # 80007dc8 <__stack_top+0xffffde18>
80003e00:	c9098513          	addi	a0,s3,-880
80003e04:	b279                	j	80003792 <main+0x1714>
80003e06:	cdc1a703          	lw	a4,-804(gp) # 8000569c <registers_0_addr>
80003e0a:	2c072023          	sw	zero,704(a4)
80003e0e:	b91d                	j	80003a44 <main+0x19c6>
80003e10:	2c072223          	sw	zero,708(a4)
80003e14:	b181                	j	80003a54 <main+0x19d6>
80003e16:	015c06b3          	add	a3,s8,s5
80003e1a:	8666                	mv	a2,s9
80003e1c:	0006c583          	lbu	a1,0(a3)
80003e20:	b141                	j	80003aa0 <main+0x1a22>
80003e22:	534c57b7          	lui	a5,0x534c5
80003e26:	55078793          	addi	a5,a5,1360 # 534c5550 <RAM_SIZE+0x534a5550>
80003e2a:	10f12823          	sw	a5,272(sp)
80003e2e:	6795                	lui	a5,0x5
80003e30:	24578793          	addi	a5,a5,581 # 5245 <HEAP_SIZE+0x4245>
80003e34:	b3ad                	j	80003b9e <main+0x1b20>
80003e36:	06d00793          	li	a5,109
80003e3a:	00fb0463          	beq	s6,a5,80003e42 <main+0x1dc4>
80003e3e:	b0dfe06f          	j	8000294a <main+0x8cc>
80003e42:	80007537          	lui	a0,0x80007
80003e46:	cbc50513          	addi	a0,a0,-836 # 80006cbc <__stack_top+0xffffcd0c>
80003e4a:	2c19                	jal	80004060 <readU32fromBytes>
80003e4c:	c0a1a623          	sw	a0,-1012(gp) # 800055cc <channel_mask>
80003e50:	80007537          	lui	a0,0x80007
80003e54:	cc050513          	addi	a0,a0,-832 # 80006cc0 <__stack_top+0xffffcd10>
80003e58:	2421                	jal	80004060 <readU32fromBytes>
80003e5a:	c0c18913          	addi	s2,gp,-1012 # 800055cc <channel_mask>
80003e5e:	00a92223          	sw	a0,4(s2)
80003e62:	80007537          	lui	a0,0x80007
80003e66:	cc450513          	addi	a0,a0,-828 # 80006cc4 <__stack_top+0xffffcd14>
80003e6a:	2add                	jal	80004060 <readU32fromBytes>
80003e6c:	00a92423          	sw	a0,8(s2)
80003e70:	5a0000ef          	jal	ra,80004410 <get_mapped_channels>
80003e74:	cb64d703          	lhu	a4,-842(s1)
80003e78:	80008937          	lui	s2,0x80008
80003e7c:	dc890693          	addi	a3,s2,-568 # 80007dc8 <__stack_top+0xffffde18>
80003e80:	00170793          	addi	a5,a4,1
80003e84:	07c2                	slli	a5,a5,0x10
80003e86:	83c1                	srli	a5,a5,0x10
80003e88:	9736                	add	a4,a4,a3
80003e8a:	800079b7          	lui	s3,0x80007
80003e8e:	4689                	li	a3,2
80003e90:	4601                	li	a2,0
80003e92:	cb648593          	addi	a1,s1,-842
80003e96:	dc890513          	addi	a0,s2,-568
80003e9a:	caf49b23          	sh	a5,-842(s1)
80003e9e:	01670023          	sb	s6,0(a4)
80003ea2:	c8f99623          	sh	a5,-884(s3) # 80006c8c <__stack_top+0xffffccdc>
80003ea6:	63a000ef          	jal	ra,800044e0 <bufWrite>
80003eaa:	4601                	li	a2,0
80003eac:	4585                	li	a1,1
80003eae:	4531                	li	a0,12
80003eb0:	276000ef          	jal	ra,80004126 <digi_write>
80003eb4:	11010d93          	addi	s11,sp,272
80003eb8:	87ee                	mv	a5,s11
80003eba:	dc4e                	sw	s3,56(sp)
80003ebc:	577d                	li	a4,-1
80003ebe:	00e79023          	sh	a4,0(a5)
80003ec2:	0e94                	addi	a3,sp,848
80003ec4:	0789                	addi	a5,a5,2
80003ec6:	fef69ce3          	bne	a3,a5,80003ebe <main+0x1e40>
80003eca:	8f018793          	addi	a5,gp,-1808 # 800052b0 <default_gains_cal>
80003ece:	03000993          	li	s3,48
80003ed2:	4485                	li	s1,1
80003ed4:	00418b93          	addi	s7,gp,4 # 800059c4 <mapped_channel_mask>
80003ed8:	c4be                	sw	a5,72(sp)
80003eda:	fd098d13          	addi	s10,s3,-48
80003ede:	9b018793          	addi	a5,gp,-1616 # 80005370 <default_gains_hv>
80003ee2:	0ffd7d13          	andi	s10,s10,255
80003ee6:	ccbe                	sw	a5,88(sp)
80003ee8:	053d4163          	blt	s10,s3,80003f2a <main+0x1eac>
80003eec:	4789                	li	a5,2
80003eee:	03098993          	addi	s3,s3,48
80003ef2:	02f49a63          	bne	s1,a5,80003f26 <main+0x1ea8>
80003ef6:	800074b7          	lui	s1,0x80007
80003efa:	000dd603          	lhu	a2,0(s11)
80003efe:	4689                	li	a3,2
80003f00:	cb648593          	addi	a1,s1,-842 # 80006cb6 <__stack_top+0xffffcd06>
80003f04:	dc890513          	addi	a0,s2,-568
80003f08:	5d8000ef          	jal	ra,800044e0 <bufWrite>
80003f0c:	0d89                	addi	s11,s11,2
80003f0e:	0e9c                	addi	a5,sp,848
80003f10:	ffb795e3          	bne	a5,s11,80003efa <main+0x1e7c>
80003f14:	cb64d603          	lhu	a2,-842(s1)
80003f18:	57e2                	lw	a5,56(sp)
80003f1a:	4689                	li	a3,2
80003f1c:	1675                	addi	a2,a2,-3
80003f1e:	c8c78593          	addi	a1,a5,-884
80003f22:	d63fe06f          	j	80002c84 <main+0xc06>
80003f26:	4489                	li	s1,2
80003f28:	bf4d                	j	80003eda <main+0x1e5c>
80003f2a:	4785                	li	a5,1
80003f2c:	0ef49563          	bne	s1,a5,80004016 <main+0x1f98>
80003f30:	47fd                	li	a5,31
80003f32:	0da7eb63          	bltu	a5,s10,80004008 <main+0x1f8a>
80003f36:	0041a603          	lw	a2,4(gp) # 800059c4 <mapped_channel_mask>
80003f3a:	01a497b3          	sll	a5,s1,s10
80003f3e:	8ff1                	and	a5,a5,a2
80003f40:	00f037b3          	snez	a5,a5
80003f44:	0ff7f793          	andi	a5,a5,255
80003f48:	cfc5                	beqz	a5,80004000 <main+0x1f82>
80003f4a:	47f6                	lw	a5,92(sp)
80003f4c:	03000593          	li	a1,48
80003f50:	856a                	mv	a0,s10
80003f52:	97ea                	add	a5,a5,s10
80003f54:	0007cc83          	lbu	s9,0(a5)
80003f58:	47a6                	lw	a5,72(sp)
80003f5a:	0c011223          	sh	zero,196(sp)
80003f5e:	001c9a93          	slli	s5,s9,0x1
80003f62:	97d6                	add	a5,a5,s5
80003f64:	0007d783          	lhu	a5,0(a5)
80003f68:	0c011b23          	sh	zero,214(sp)
80003f6c:	0cc2                	slli	s9,s9,0x10
80003f6e:	0cf11323          	sh	a5,198(sp)
80003f72:	0cf11423          	sh	a5,200(sp)
80003f76:	47e6                	lw	a5,88(sp)
80003f78:	010cdc93          	srli	s9,s9,0x10
80003f7c:	0007ab37          	lui	s6,0x7a
80003f80:	97d6                	add	a5,a5,s5
80003f82:	0007d783          	lhu	a5,0(a5)
80003f86:	9aee                	add	s5,s5,s11
80003f88:	4a01                	li	s4,0
80003f8a:	0cf11a23          	sh	a5,212(sp)
80003f8e:	0cf11c23          	sh	a5,216(sp)
80003f92:	6d7000ef          	jal	ra,80004e68 <__umodsi3>
80003f96:	0ff57593          	andi	a1,a0,255
80003f9a:	8626                	mv	a2,s1
80003f9c:	05000513          	li	a0,80
80003fa0:	2259                	jal	80004126 <digi_write>
80003fa2:	060c8793          	addi	a5,s9,96
80003fa6:	d23e                	sw	a5,36(sp)
80003fa8:	120b0b13          	addi	s6,s6,288 # 7a120 <RAM_SIZE+0x5a120>
80003fac:	01dc                	addi	a5,sp,196
80003fae:	01478633          	add	a2,a5,s4
80003fb2:	00065583          	lhu	a1,0(a2) # 10000 <HEAP_SIZE+0xf000>
80003fb6:	8566                	mv	a0,s9
80003fb8:	0c0a8a93          	addi	s5,s5,192
80003fbc:	481000ef          	jal	ra,80004c3c <setPreampGain>
80003fc0:	09dc                	addi	a5,sp,212
80003fc2:	01478633          	add	a2,a5,s4
80003fc6:	00065583          	lhu	a1,0(a2)
80003fca:	5512                	lw	a0,36(sp)
80003fcc:	0a09                	addi	s4,s4,2
80003fce:	46f000ef          	jal	ra,80004c3c <setPreampGain>
80003fd2:	855a                	mv	a0,s6
80003fd4:	207d                	jal	80004082 <hwdelay>
80003fd6:	8626                	mv	a2,s1
80003fd8:	4585                	li	a1,1
80003fda:	05100513          	li	a0,81
80003fde:	22a1                	jal	80004126 <digi_write>
80003fe0:	4515                	li	a0,5
80003fe2:	28d9                	jal	800040b8 <delayUs>
80003fe4:	85a6                	mv	a1,s1
80003fe6:	05200513          	li	a0,82
80003fea:	2245                	jal	8000418a <digi_read>
80003fec:	f4aa9023          	sh	a0,-192(s5)
80003ff0:	8626                	mv	a2,s1
80003ff2:	4581                	li	a1,0
80003ff4:	05100513          	li	a0,81
80003ff8:	223d                	jal	80004126 <digi_write>
80003ffa:	4319                	li	t1,6
80003ffc:	fa6a18e3          	bne	s4,t1,80003fac <main+0x1f2e>
80004000:	0d05                	addi	s10,s10,1
80004002:	0ffd7d13          	andi	s10,s10,255
80004006:	b5cd                	j	80003ee8 <main+0x1e6a>
80004008:	fe0d0793          	addi	a5,s10,-32
8000400c:	004ba603          	lw	a2,4(s7)
80004010:	00f497b3          	sll	a5,s1,a5
80004014:	b72d                	j	80003f3e <main+0x1ec0>
80004016:	03f00613          	li	a2,63
8000401a:	01a66963          	bltu	a2,s10,8000402c <main+0x1fae>
8000401e:	004ba603          	lw	a2,4(s7)
80004022:	fe0d0593          	addi	a1,s10,-32
80004026:	00b797b3          	sll	a5,a5,a1
8000402a:	bf11                	j	80003f3e <main+0x1ec0>
8000402c:	008ba603          	lw	a2,8(s7)
80004030:	fc0d0593          	addi	a1,s10,-64
80004034:	bfcd                	j	80004026 <main+0x1fa8>
80004036:	5682                	lw	a3,32(sp)
80004038:	96be                	add	a3,a3,a5
8000403a:	96a2                	add	a3,a3,s0
8000403c:	0006c603          	lbu	a2,0(a3)
80004040:	00f406b3          	add	a3,s0,a5
80004044:	0785                	addi	a5,a5,1
80004046:	07c2                	slli	a5,a5,0x10
80004048:	00c68023          	sb	a2,0(a3)
8000404c:	83c1                	srli	a5,a5,0x10
8000404e:	909fe06f          	j	80002956 <main+0x8d8>

80004052 <readU16fromBytes>:
readU16fromBytes():
80004052:	00154783          	lbu	a5,1(a0)
80004056:	00054503          	lbu	a0,0(a0)
8000405a:	07a2                	slli	a5,a5,0x8
8000405c:	8d5d                	or	a0,a0,a5
8000405e:	8082                	ret

80004060 <readU32fromBytes>:
readU32fromBytes():
80004060:	1141                	addi	sp,sp,-16
80004062:	4781                	li	a5,0
80004064:	4711                	li	a4,4
80004066:	00f50633          	add	a2,a0,a5
8000406a:	00064603          	lbu	a2,0(a2)
8000406e:	0074                	addi	a3,sp,12
80004070:	96be                	add	a3,a3,a5
80004072:	00c68023          	sb	a2,0(a3)
80004076:	0785                	addi	a5,a5,1
80004078:	fee797e3          	bne	a5,a4,80004066 <readU32fromBytes+0x6>
8000407c:	4532                	lw	a0,12(sp)
8000407e:	0141                	addi	sp,sp,16
80004080:	8082                	ret

80004082 <hwdelay>:
hwdelay():
80004082:	cdc1a783          	lw	a5,-804(gp) # 8000569c <registers_0_addr>
80004086:	1141                	addi	sp,sp,-16
80004088:	c602                	sw	zero,12(sp)
8000408a:	4705                	li	a4,1
8000408c:	c7f8                	sw	a4,76(a5)
8000408e:	4732                	lw	a4,12(sp)
80004090:	00a76663          	bltu	a4,a0,8000409c <hwdelay+0x1a>
80004094:	0407a623          	sw	zero,76(a5)
80004098:	0141                	addi	sp,sp,16
8000409a:	8082                	ret
8000409c:	4bb8                	lw	a4,80(a5)
8000409e:	c63a                	sw	a4,12(sp)
800040a0:	b7fd                	j	8000408e <hwdelay+0xc>

800040a2 <delay_ms>:
delay_ms():
800040a2:	54b002ef          	jal	t0,80004dec <__riscv_save_0>
800040a6:	65b1                	lui	a1,0xc
800040a8:	35058593          	addi	a1,a1,848 # c350 <HEAP_SIZE+0xb350>
800040ac:	571000ef          	jal	ra,80004e1c <__mulsi3>
800040b0:	fd3ff0ef          	jal	ra,80004082 <hwdelay>
800040b4:	55d0006f          	j	80004e10 <__riscv_restore_0>

800040b8 <delayUs>:
delayUs():
800040b8:	535002ef          	jal	t0,80004dec <__riscv_save_0>
800040bc:	00151793          	slli	a5,a0,0x1
800040c0:	97aa                	add	a5,a5,a0
800040c2:	078e                	slli	a5,a5,0x3
800040c4:	953e                	add	a0,a0,a5
800040c6:	0506                	slli	a0,a0,0x1
800040c8:	fbbff0ef          	jal	ra,80004082 <hwdelay>
800040cc:	5450006f          	j	80004e10 <__riscv_restore_0>

800040d0 <DCS_pass_sim_param>:
DCS_pass_sim_param():
800040d0:	0572                	slli	a0,a0,0x1c
800040d2:	e989                	bnez	a1,800040e4 <DCS_pass_sim_param+0x14>
800040d4:	0642                	slli	a2,a2,0x10
800040d6:	8e55                	or	a2,a2,a3
800040d8:	cdc1a783          	lw	a5,-804(gp) # 8000569c <registers_0_addr>
800040dc:	8d51                	or	a0,a0,a2
800040de:	14a7a423          	sw	a0,328(a5)
800040e2:	8082                	ret
800040e4:	0622                	slli	a2,a2,0x8
800040e6:	0692                	slli	a3,a3,0x4
800040e8:	8e55                	or	a2,a2,a3
800040ea:	8e49                	or	a2,a2,a0
800040ec:	01859513          	slli	a0,a1,0x18
800040f0:	b7e5                	j	800040d8 <DCS_pass_sim_param+0x8>

800040f2 <DCS_pass_addr_data>:
DCS_pass_addr_data():
800040f2:	cdc1a783          	lw	a5,-804(gp) # 8000569c <registers_0_addr>
800040f6:	00c03633          	snez	a2,a2
800040fa:	05360613          	addi	a2,a2,83
800040fe:	05c2                	slli	a1,a1,0x10
80004100:	060a                	slli	a2,a2,0x2
80004102:	8d4d                	or	a0,a0,a1
80004104:	963e                	add	a2,a2,a5
80004106:	c208                	sw	a0,0(a2)
80004108:	8082                	ret

8000410a <DCS_sim_packet_send>:
DCS_sim_packet_send():
8000410a:	4e3002ef          	jal	t0,80004dec <__riscv_save_0>
8000410e:	6531                	lui	a0,0xc
80004110:	35050513          	addi	a0,a0,848 # c350 <HEAP_SIZE+0xb350>
80004114:	f6fff0ef          	jal	ra,80004082 <hwdelay>
80004118:	cdc1a783          	lw	a5,-804(gp) # 8000569c <registers_0_addr>
8000411c:	4705                	li	a4,1
8000411e:	14e7a223          	sw	a4,324(a5)
80004122:	4ef0006f          	j	80004e10 <__riscv_restore_0>

80004126 <digi_write>:
digi_write():
80004126:	4705                	li	a4,1
80004128:	00c76f63          	bltu	a4,a2,80004146 <digi_write+0x20>
8000412c:	cdc1a783          	lw	a5,-804(gp) # 8000569c <registers_0_addr>
80004130:	18b7a623          	sw	a1,396(a5)
80004134:	18a7a423          	sw	a0,392(a5)
80004138:	18e7a023          	sw	a4,384(a5)
8000413c:	1847a703          	lw	a4,388(a5)
80004140:	ff75                	bnez	a4,8000413c <digi_write+0x16>
80004142:	c609                	beqz	a2,8000414c <digi_write+0x26>
80004144:	8082                	ret
80004146:	4789                	li	a5,2
80004148:	04f61063          	bne	a2,a5,80004188 <digi_write+0x62>
8000414c:	cdc1a783          	lw	a5,-804(gp) # 8000569c <registers_0_addr>
80004150:	4705                	li	a4,1
80004152:	1cb7a623          	sw	a1,460(a5)
80004156:	1ca7a423          	sw	a0,456(a5)
8000415a:	1ce7a023          	sw	a4,448(a5)
8000415e:	1c47a703          	lw	a4,452(a5)
80004162:	ff75                	bnez	a4,8000415e <digi_write+0x38>
80004164:	e215                	bnez	a2,80004188 <digi_write+0x62>
80004166:	18b7a623          	sw	a1,396(a5)
8000416a:	18a7a423          	sw	a0,392(a5)
8000416e:	1cb7a623          	sw	a1,460(a5)
80004172:	1ca7a423          	sw	a0,456(a5)
80004176:	4705                	li	a4,1
80004178:	1ce7ac23          	sw	a4,472(a5)
8000417c:	1c47a703          	lw	a4,452(a5)
80004180:	ff75                	bnez	a4,8000417c <digi_write+0x56>
80004182:	1847a703          	lw	a4,388(a5)
80004186:	ff75                	bnez	a4,80004182 <digi_write+0x5c>
80004188:	8082                	ret

8000418a <digi_read>:
digi_read():
8000418a:	4709                	li	a4,2
8000418c:	cdc1a783          	lw	a5,-804(gp) # 8000569c <registers_0_addr>
80004190:	10056513          	ori	a0,a0,256
80004194:	00e58f63          	beq	a1,a4,800041b2 <digi_read+0x28>
80004198:	18a7a423          	sw	a0,392(a5)
8000419c:	4705                	li	a4,1
8000419e:	18e7a023          	sw	a4,384(a5)
800041a2:	1847a703          	lw	a4,388(a5)
800041a6:	ff75                	bnez	a4,800041a2 <digi_read+0x18>
800041a8:	18c7a503          	lw	a0,396(a5)
800041ac:	0542                	slli	a0,a0,0x10
800041ae:	8141                	srli	a0,a0,0x10
800041b0:	8082                	ret
800041b2:	1ca7a423          	sw	a0,456(a5)
800041b6:	4705                	li	a4,1
800041b8:	1ce7a023          	sw	a4,448(a5)
800041bc:	1c47a703          	lw	a4,452(a5)
800041c0:	ff75                	bnez	a4,800041bc <digi_read+0x32>
800041c2:	1cc7a503          	lw	a0,460(a5)
800041c6:	b7dd                	j	800041ac <digi_read+0x22>

800041c8 <read_histogram>:
read_histogram():
800041c8:	425002ef          	jal	t0,80004dec <__riscv_save_0>
800041cc:	0506                	slli	a0,a0,0x1
800041ce:	8985                	andi	a1,a1,1
800041d0:	8dc9                	or	a1,a1,a0
800041d2:	8932                	mv	s2,a2
800041d4:	02300513          	li	a0,35
800041d8:	4605                	li	a2,1
800041da:	f4dff0ef          	jal	ra,80004126 <digi_write>
800041de:	4605                	li	a2,1
800041e0:	4585                	li	a1,1
800041e2:	02000513          	li	a0,32
800041e6:	f41ff0ef          	jal	ra,80004126 <digi_write>
800041ea:	4605                	li	a2,1
800041ec:	4581                	li	a1,0
800041ee:	02000513          	li	a0,32
800041f2:	f35ff0ef          	jal	ra,80004126 <digi_write>
800041f6:	6531                	lui	a0,0xc
800041f8:	35050513          	addi	a0,a0,848 # c350 <HEAP_SIZE+0xb350>
800041fc:	e87ff0ef          	jal	ra,80004082 <hwdelay>
80004200:	4401                	li	s0,0
80004202:	10000493          	li	s1,256
80004206:	01041593          	slli	a1,s0,0x10
8000420a:	4605                	li	a2,1
8000420c:	81c1                	srli	a1,a1,0x10
8000420e:	02100513          	li	a0,33
80004212:	f15ff0ef          	jal	ra,80004126 <digi_write>
80004216:	4585                	li	a1,1
80004218:	02200513          	li	a0,34
8000421c:	f6fff0ef          	jal	ra,8000418a <digi_read>
80004220:	00141793          	slli	a5,s0,0x1
80004224:	97ca                	add	a5,a5,s2
80004226:	00a79023          	sh	a0,0(a5)
8000422a:	0405                	addi	s0,s0,1
8000422c:	fc941de3          	bne	s0,s1,80004206 <read_histogram+0x3e>
80004230:	3e10006f          	j	80004e10 <__riscv_restore_0>

80004234 <adc_spi_core>:
adc_spi_core():
80004234:	39f002ef          	jal	t0,80004dd2 <__riscv_save_4>
80004238:	fff58913          	addi	s2,a1,-1
8000423c:	843e                	mv	s0,a5
8000423e:	0936                	slli	s2,s2,0xd
80004240:	6799                	lui	a5,0x6
80004242:	00f97933          	and	s2,s2,a5
80004246:	00f51793          	slli	a5,a0,0xf
8000424a:	8e5d                	or	a2,a2,a5
8000424c:	1141                	addi	sp,sp,-16
8000424e:	00c96933          	or	s2,s2,a2
80004252:	89aa                	mv	s3,a0
80004254:	8622                	mv	a2,s0
80004256:	4525                	li	a0,9
80004258:	8a2e                	mv	s4,a1
8000425a:	4581                	li	a1,0
8000425c:	84b6                	mv	s1,a3
8000425e:	c63a                	sw	a4,12(sp)
80004260:	ec7ff0ef          	jal	ra,80004126 <digi_write>
80004264:	8622                	mv	a2,s0
80004266:	0ff00593          	li	a1,255
8000426a:	4521                	li	a0,8
8000426c:	ebbff0ef          	jal	ra,80004126 <digi_write>
80004270:	8622                	mv	a2,s0
80004272:	4581                	li	a1,0
80004274:	4519                	li	a0,6
80004276:	eb1ff0ef          	jal	ra,80004126 <digi_write>
8000427a:	4732                	lw	a4,12(sp)
8000427c:	8622                	mv	a2,s0
8000427e:	4521                	li	a0,8
80004280:	fff74713          	not	a4,a4
80004284:	0ff77593          	andi	a1,a4,255
80004288:	e9fff0ef          	jal	ra,80004126 <digi_write>
8000428c:	0942                	slli	s2,s2,0x10
8000428e:	0c800513          	li	a0,200
80004292:	01095913          	srli	s2,s2,0x10
80004296:	dedff0ef          	jal	ra,80004082 <hwdelay>
8000429a:	4abd                	li	s5,15
8000429c:	5b7d                	li	s6,-1
8000429e:	415955b3          	sra	a1,s2,s5
800042a2:	8622                	mv	a2,s0
800042a4:	8985                	andi	a1,a1,1
800042a6:	4519                	li	a0,6
800042a8:	e7fff0ef          	jal	ra,80004126 <digi_write>
800042ac:	0c800513          	li	a0,200
800042b0:	dd3ff0ef          	jal	ra,80004082 <hwdelay>
800042b4:	8622                	mv	a2,s0
800042b6:	4585                	li	a1,1
800042b8:	4525                	li	a0,9
800042ba:	e6dff0ef          	jal	ra,80004126 <digi_write>
800042be:	0c800513          	li	a0,200
800042c2:	dc1ff0ef          	jal	ra,80004082 <hwdelay>
800042c6:	8622                	mv	a2,s0
800042c8:	4581                	li	a1,0
800042ca:	4525                	li	a0,9
800042cc:	1afd                	addi	s5,s5,-1
800042ce:	e59ff0ef          	jal	ra,80004126 <digi_write>
800042d2:	fd6a96e3          	bne	s5,s6,8000429e <adc_spi_core+0x6a>
800042d6:	4785                	li	a5,1
800042d8:	00f99763          	bne	s3,a5,800042e6 <adc_spi_core+0xb2>
800042dc:	8622                	mv	a2,s0
800042de:	4585                	li	a1,1
800042e0:	451d                	li	a0,7
800042e2:	e45ff0ef          	jal	ra,80004126 <digi_write>
800042e6:	9a26                	add	s4,s4,s1
800042e8:	4a85                	li	s5,1
800042ea:	5b7d                	li	s6,-1
800042ec:	a08d                	j	8000434e <adc_spi_core+0x11a>
800042ee:	491d                	li	s2,7
800042f0:	00099b63          	bnez	s3,80004306 <adc_spi_core+0xd2>
800042f4:	0004c583          	lbu	a1,0(s1)
800042f8:	8622                	mv	a2,s0
800042fa:	4519                	li	a0,6
800042fc:	4125d5b3          	sra	a1,a1,s2
80004300:	8985                	andi	a1,a1,1
80004302:	e25ff0ef          	jal	ra,80004126 <digi_write>
80004306:	0c800513          	li	a0,200
8000430a:	d79ff0ef          	jal	ra,80004082 <hwdelay>
8000430e:	01599e63          	bne	s3,s5,8000432a <adc_spi_core+0xf6>
80004312:	85a2                	mv	a1,s0
80004314:	4519                	li	a0,6
80004316:	e75ff0ef          	jal	ra,8000418a <digi_read>
8000431a:	c901                	beqz	a0,8000432a <adc_spi_core+0xf6>
8000431c:	0004c703          	lbu	a4,0(s1)
80004320:	012997b3          	sll	a5,s3,s2
80004324:	8fd9                	or	a5,a5,a4
80004326:	00f48023          	sb	a5,0(s1)
8000432a:	8622                	mv	a2,s0
8000432c:	4585                	li	a1,1
8000432e:	4525                	li	a0,9
80004330:	df7ff0ef          	jal	ra,80004126 <digi_write>
80004334:	0c800513          	li	a0,200
80004338:	d4bff0ef          	jal	ra,80004082 <hwdelay>
8000433c:	8622                	mv	a2,s0
8000433e:	4581                	li	a1,0
80004340:	4525                	li	a0,9
80004342:	197d                	addi	s2,s2,-1
80004344:	de3ff0ef          	jal	ra,80004126 <digi_write>
80004348:	fb6914e3          	bne	s2,s6,800042f0 <adc_spi_core+0xbc>
8000434c:	0485                	addi	s1,s1,1
8000434e:	fb4490e3          	bne	s1,s4,800042ee <adc_spi_core+0xba>
80004352:	0c800513          	li	a0,200
80004356:	d2dff0ef          	jal	ra,80004082 <hwdelay>
8000435a:	8622                	mv	a2,s0
8000435c:	0ff00593          	li	a1,255
80004360:	4521                	li	a0,8
80004362:	dc5ff0ef          	jal	ra,80004126 <digi_write>
80004366:	8622                	mv	a2,s0
80004368:	4581                	li	a1,0
8000436a:	4519                	li	a0,6
8000436c:	dbbff0ef          	jal	ra,80004126 <digi_write>
80004370:	0141                	addi	sp,sp,16
80004372:	2950006f          	j	80004e06 <__riscv_restore_4>

80004376 <adc_spi>:
adc_spi():
80004376:	25d002ef          	jal	t0,80004dd2 <__riscv_save_4>
8000437a:	843a                	mv	s0,a4
8000437c:	8019                	srli	s0,s0,0x6
8000437e:	03f77713          	andi	a4,a4,63
80004382:	84aa                	mv	s1,a0
80004384:	892e                	mv	s2,a1
80004386:	89b2                	mv	s3,a2
80004388:	8a36                	mv	s4,a3
8000438a:	03f47413          	andi	s0,s0,63
8000438e:	c701                	beqz	a4,80004396 <adc_spi+0x20>
80004390:	4785                	li	a5,1
80004392:	ea3ff0ef          	jal	ra,80004234 <adc_spi_core>
80004396:	c809                	beqz	s0,800043a8 <adc_spi+0x32>
80004398:	4789                	li	a5,2
8000439a:	8722                	mv	a4,s0
8000439c:	86d2                	mv	a3,s4
8000439e:	864e                	mv	a2,s3
800043a0:	85ca                	mv	a1,s2
800043a2:	8526                	mv	a0,s1
800043a4:	e91ff0ef          	jal	ra,80004234 <adc_spi_core>
800043a8:	25f0006f          	j	80004e06 <__riscv_restore_4>

800043ac <adc_write>:
adc_write():
800043ac:	241002ef          	jal	t0,80004dec <__riscv_save_0>
800043b0:	1101                	addi	sp,sp,-32
800043b2:	8432                	mv	s0,a2
800043b4:	00b107a3          	sb	a1,15(sp)
800043b8:	8732                	mv	a4,a2
800043ba:	00f10693          	addi	a3,sp,15
800043be:	862a                	mv	a2,a0
800043c0:	4585                	li	a1,1
800043c2:	4501                	li	a0,0
800043c4:	fb3ff0ef          	jal	ra,80004376 <adc_spi>
800043c8:	4785                	li	a5,1
800043ca:	0874                	addi	a3,sp,28
800043cc:	8722                	mv	a4,s0
800043ce:	0ff00613          	li	a2,255
800043d2:	4585                	li	a1,1
800043d4:	4501                	li	a0,0
800043d6:	00f10e23          	sb	a5,28(sp)
800043da:	f9dff0ef          	jal	ra,80004376 <adc_spi>
800043de:	6105                	addi	sp,sp,32
800043e0:	2310006f          	j	80004e10 <__riscv_restore_0>

800043e4 <adc_read>:
adc_read():
800043e4:	209002ef          	jal	t0,80004dec <__riscv_save_0>
800043e8:	4705                	li	a4,1
800043ea:	00b71733          	sll	a4,a4,a1
800043ee:	1141                	addi	sp,sp,-16
800043f0:	0742                	slli	a4,a4,0x10
800043f2:	00f10693          	addi	a3,sp,15
800043f6:	862a                	mv	a2,a0
800043f8:	8341                	srli	a4,a4,0x10
800043fa:	4585                	li	a1,1
800043fc:	4505                	li	a0,1
800043fe:	000107a3          	sb	zero,15(sp)
80004402:	f75ff0ef          	jal	ra,80004376 <adc_spi>
80004406:	00f14503          	lbu	a0,15(sp)
8000440a:	0141                	addi	sp,sp,16
8000440c:	2050006f          	j	80004e10 <__riscv_restore_0>

80004410 <get_mapped_channels>:
get_mapped_channels():
80004410:	1141                	addi	sp,sp,-16
80004412:	c622                	sw	s0,12(sp)
80004414:	c426                	sw	s1,8(sp)
80004416:	c24a                	sw	s2,4(sp)
80004418:	c04e                	sw	s3,0(sp)
8000441a:	0001a223          	sw	zero,4(gp) # 800059c4 <mapped_channel_mask>
8000441e:	00418793          	addi	a5,gp,4 # 800059c4 <mapped_channel_mask>
80004422:	0007a223          	sw	zero,4(a5) # 6004 <HEAP_SIZE+0x5004>
80004426:	0007a423          	sw	zero,8(a5)
8000442a:	4601                	li	a2,0
8000442c:	00418893          	addi	a7,gp,4 # 800059c4 <mapped_channel_mask>
80004430:	4805                	li	a6,1
80004432:	c0c18313          	addi	t1,gp,-1012 # 800055cc <channel_mask>
80004436:	89018e93          	addi	t4,gp,-1904 # 80005250 <channel_map>
8000443a:	06000293          	li	t0,96
8000443e:	43fd                	li	t2,31
80004440:	03f00413          	li	s0,63
80004444:	02000f93          	li	t6,32
80004448:	448d                	li	s1,3
8000444a:	00261593          	slli	a1,a2,0x2
8000444e:	959a                	add	a1,a1,t1
80004450:	00561e13          	slli	t3,a2,0x5
80004454:	4501                	li	a0,0
80004456:	8f2e                	mv	t5,a1
80004458:	419c                	lw	a5,0(a1)
8000445a:	00a816b3          	sll	a3,a6,a0
8000445e:	8ff5                	and	a5,a5,a3
80004460:	cba5                	beqz	a5,800044d0 <get_mapped_channels+0xc0>
80004462:	4781                	li	a5,0
80004464:	00fe89b3          	add	s3,t4,a5
80004468:	0009c983          	lbu	s3,0(s3)
8000446c:	0ff7f913          	andi	s2,a5,255
80004470:	05c99d63          	bne	s3,t3,800044ca <get_mapped_channels+0xba>
80004474:	0323e663          	bltu	t2,s2,800044a0 <get_mapped_channels+0x90>
80004478:	0041a683          	lw	a3,4(gp) # 800059c4 <mapped_channel_mask>
8000447c:	00f817b3          	sll	a5,a6,a5
80004480:	8fd5                	or	a5,a5,a3
80004482:	00f1a223          	sw	a5,4(gp) # 800059c4 <mapped_channel_mask>
80004486:	0505                	addi	a0,a0,1
80004488:	0e05                	addi	t3,t3,1
8000448a:	fdf517e3          	bne	a0,t6,80004458 <get_mapped_channels+0x48>
8000448e:	0605                	addi	a2,a2,1
80004490:	fa961de3          	bne	a2,s1,8000444a <get_mapped_channels+0x3a>
80004494:	4432                	lw	s0,12(sp)
80004496:	44a2                	lw	s1,8(sp)
80004498:	4912                	lw	s2,4(sp)
8000449a:	4982                	lw	s3,0(sp)
8000449c:	0141                	addi	sp,sp,16
8000449e:	8082                	ret
800044a0:	01246b63          	bltu	s0,s2,800044b6 <get_mapped_channels+0xa6>
800044a4:	0048a683          	lw	a3,4(a7)
800044a8:	1781                	addi	a5,a5,-32
800044aa:	00f817b3          	sll	a5,a6,a5
800044ae:	8fd5                	or	a5,a5,a3
800044b0:	00f8a223          	sw	a5,4(a7)
800044b4:	bfc9                	j	80004486 <get_mapped_channels+0x76>
800044b6:	0088a683          	lw	a3,8(a7)
800044ba:	fc078793          	addi	a5,a5,-64
800044be:	00f817b3          	sll	a5,a6,a5
800044c2:	8fd5                	or	a5,a5,a3
800044c4:	00f8a423          	sw	a5,8(a7)
800044c8:	bf7d                	j	80004486 <get_mapped_channels+0x76>
800044ca:	0785                	addi	a5,a5,1
800044cc:	f8579ce3          	bne	a5,t0,80004464 <get_mapped_channels+0x54>
800044d0:	000f2783          	lw	a5,0(t5)
800044d4:	fff6c693          	not	a3,a3
800044d8:	8efd                	and	a3,a3,a5
800044da:	00df2023          	sw	a3,0(t5)
800044de:	b765                	j	80004486 <get_mapped_channels+0x76>

800044e0 <bufWrite>:
bufWrite():
800044e0:	4781                	li	a5,0
800044e2:	00d7e363          	bltu	a5,a3,800044e8 <bufWrite+0x8>
800044e6:	8082                	ret
800044e8:	0005d703          	lhu	a4,0(a1)
800044ec:	00170813          	addi	a6,a4,1
800044f0:	01059023          	sh	a6,0(a1)
800044f4:	00379813          	slli	a6,a5,0x3
800044f8:	972a                	add	a4,a4,a0
800044fa:	01065833          	srl	a6,a2,a6
800044fe:	0785                	addi	a5,a5,1
80004500:	01070023          	sb	a6,0(a4)
80004504:	0ff7f793          	andi	a5,a5,255
80004508:	bfe9                	j	800044e2 <bufWrite+0x2>

8000450a <init_adc>:
init_adc():
8000450a:	0b3002ef          	jal	t0,80004dbc <__riscv_save_12>
8000450e:	80007437          	lui	s0,0x80007
80004512:	80007937          	lui	s2,0x80007
80004516:	1141                	addi	sp,sp,-16
80004518:	8c2e                	mv	s8,a1
8000451a:	8cb2                	mv	s9,a2
8000451c:	4689                	li	a3,2
8000451e:	862a                	mv	a2,a0
80004520:	8a2a                	mv	s4,a0
80004522:	cb640593          	addi	a1,s0,-842 # 80006cb6 <__stack_top+0xffffcd06>
80004526:	c9890513          	addi	a0,s2,-872 # 80006c98 <__stack_top+0xffffcce8>
8000452a:	ca041b23          	sh	zero,-842(s0)
8000452e:	fb3ff0ef          	jal	ra,800044e0 <bufWrite>
80004532:	cb645783          	lhu	a5,-842(s0)
80004536:	c9890713          	addi	a4,s2,-872
8000453a:	4981                	li	s3,0
8000453c:	00e786b3          	add	a3,a5,a4
80004540:	01868023          	sb	s8,0(a3)
80004544:	00278693          	addi	a3,a5,2
80004548:	0785                	addi	a5,a5,1
8000454a:	07c2                	slli	a5,a5,0x10
8000454c:	83c1                	srli	a5,a5,0x10
8000454e:	97ba                	add	a5,a5,a4
80004550:	01978023          	sb	s9,0(a5)
80004554:	6785                	lui	a5,0x1
80004556:	38878793          	addi	a5,a5,904 # 1388 <HEAP_SIZE+0x388>
8000455a:	cad41b23          	sh	a3,-842(s0)
8000455e:	4481                	li	s1,0
80004560:	c9890d13          	addi	s10,s2,-872
80004564:	c43e                	sw	a5,8(sp)
80004566:	4da1                	li	s11,8
80004568:	413a5b33          	sra	s6,s4,s3
8000456c:	001b7b13          	andi	s6,s6,1
80004570:	080b0963          	beqz	s6,80004602 <init_adc+0xf8>
80004574:	4785                	li	a5,1
80004576:	01379ab3          	sll	s5,a5,s3
8000457a:	010a9613          	slli	a2,s5,0x10
8000457e:	8241                	srli	a2,a2,0x10
80004580:	03c00593          	li	a1,60
80004584:	4501                	li	a0,0
80004586:	e27ff0ef          	jal	ra,800043ac <adc_write>
8000458a:	47a9                	li	a5,10
8000458c:	0ff9fb93          	andi	s7,s3,255
80004590:	85de                	mv	a1,s7
80004592:	4501                	li	a0,0
80004594:	c63e                	sw	a5,12(sp)
80004596:	e4fff0ef          	jal	ra,800043e4 <adc_read>
8000459a:	47e1                	li	a5,24
8000459c:	00f50663          	beq	a0,a5,800045a8 <init_adc+0x9e>
800045a0:	47b2                	lw	a5,12(sp)
800045a2:	17fd                	addi	a5,a5,-1
800045a4:	f7f5                	bnez	a5,80004590 <init_adc+0x86>
800045a6:	4b01                	li	s6,0
800045a8:	85de                	mv	a1,s7
800045aa:	4501                	li	a0,0
800045ac:	e39ff0ef          	jal	ra,800043e4 <adc_read>
800045b0:	cb645783          	lhu	a5,-842(s0)
800045b4:	85de                	mv	a1,s7
800045b6:	00178713          	addi	a4,a5,1
800045ba:	97ea                	add	a5,a5,s10
800045bc:	00a78023          	sb	a0,0(a5)
800045c0:	4505                	li	a0,1
800045c2:	cae41b23          	sh	a4,-842(s0)
800045c6:	e1fff0ef          	jal	ra,800043e4 <adc_read>
800045ca:	cb645783          	lhu	a5,-842(s0)
800045ce:	00178713          	addi	a4,a5,1
800045d2:	97ea                	add	a5,a5,s10
800045d4:	cae41b23          	sh	a4,-842(s0)
800045d8:	00a78023          	sb	a0,0(a5)
800045dc:	000b1663          	bnez	s6,800045e8 <init_adc+0xde>
800045e0:	009ae4b3          	or	s1,s5,s1
800045e4:	04c2                	slli	s1,s1,0x10
800045e6:	80c1                	srli	s1,s1,0x10
800045e8:	4522                	lw	a0,8(sp)
800045ea:	a99ff0ef          	jal	ra,80004082 <hwdelay>
800045ee:	85de                	mv	a1,s7
800045f0:	4505                	li	a0,1
800045f2:	df3ff0ef          	jal	ra,800043e4 <adc_read>
800045f6:	01b50663          	beq	a0,s11,80004602 <init_adc+0xf8>
800045fa:	009ae4b3          	or	s1,s5,s1
800045fe:	04c2                	slli	s1,s1,0x10
80004600:	80c1                	srli	s1,s1,0x10
80004602:	0985                	addi	s3,s3,1
80004604:	47b1                	li	a5,12
80004606:	f6f991e3          	bne	s3,a5,80004568 <init_adc+0x5e>
8000460a:	8652                	mv	a2,s4
8000460c:	03f00593          	li	a1,63
80004610:	4515                	li	a0,5
80004612:	d9bff0ef          	jal	ra,800043ac <adc_write>
80004616:	8652                	mv	a2,s4
80004618:	85e6                	mv	a1,s9
8000461a:	4559                	li	a0,22
8000461c:	d91ff0ef          	jal	ra,800043ac <adc_write>
80004620:	8652                	mv	a2,s4
80004622:	85e2                	mv	a1,s8
80004624:	4535                	li	a0,13
80004626:	d87ff0ef          	jal	ra,800043ac <adc_write>
8000462a:	c9890513          	addi	a0,s2,-872
8000462e:	4689                	li	a3,2
80004630:	8626                	mv	a2,s1
80004632:	cb640593          	addi	a1,s0,-842
80004636:	eabff0ef          	jal	ra,800044e0 <bufWrite>
8000463a:	8526                	mv	a0,s1
8000463c:	0141                	addi	sp,sp,16
8000463e:	7ba0006f          	j	80004df8 <__riscv_restore_12>

80004642 <read_data>:
read_data():
80004642:	782002ef          	jal	t0,80004dc4 <__riscv_save_10>
80004646:	800077b7          	lui	a5,0x80007
8000464a:	c807a703          	lw	a4,-896(a5) # 80006c80 <__stack_top+0xffffccd0>
8000464e:	4785                	li	a5,1
80004650:	1141                	addi	sp,sp,-16
80004652:	8a2a                	mv	s4,a0
80004654:	8b2e                	mv	s6,a1
80004656:	80008ab7          	lui	s5,0x80008
8000465a:	4401                	li	s0,0
8000465c:	0ef71f63          	bne	a4,a5,8000475a <read_data+0x118>
80004660:	800077b7          	lui	a5,0x80007
80004664:	7a0aa483          	lw	s1,1952(s5) # 800087a0 <__stack_top+0xffffe7f0>
80004668:	db87a583          	lw	a1,-584(a5) # 80006db8 <__stack_top+0xffffce08>
8000466c:	6441                	lui	s0,0x10
8000466e:	8526                	mv	a0,s1
80004670:	7ac000ef          	jal	ra,80004e1c <__mulsi3>
80004674:	a0040413          	addi	s0,s0,-1536 # fa00 <HEAP_SIZE+0xea00>
80004678:	892a                	mv	s2,a0
8000467a:	00a47863          	bgeu	s0,a0,8000468a <read_data+0x48>
8000467e:	85a6                	mv	a1,s1
80004680:	8522                	mv	a0,s0
80004682:	00b000ef          	jal	ra,80004e8c <__modsi3>
80004686:	40a40933          	sub	s2,s0,a0
8000468a:	0041a583          	lw	a1,4(gp) # 800059c4 <mapped_channel_mask>
8000468e:	4605                	li	a2,1
80004690:	452d                	li	a0,11
80004692:	05c2                	slli	a1,a1,0x10
80004694:	81c1                	srli	a1,a1,0x10
80004696:	a91ff0ef          	jal	ra,80004126 <digi_write>
8000469a:	0041a583          	lw	a1,4(gp) # 800059c4 <mapped_channel_mask>
8000469e:	4605                	li	a2,1
800046a0:	4539                	li	a0,14
800046a2:	81c1                	srli	a1,a1,0x10
800046a4:	a83ff0ef          	jal	ra,80004126 <digi_write>
800046a8:	00418413          	addi	s0,gp,4 # 800059c4 <mapped_channel_mask>
800046ac:	404c                	lw	a1,4(s0)
800046ae:	4605                	li	a2,1
800046b0:	4535                	li	a0,13
800046b2:	05c2                	slli	a1,a1,0x10
800046b4:	81c1                	srli	a1,a1,0x10
800046b6:	a71ff0ef          	jal	ra,80004126 <digi_write>
800046ba:	404c                	lw	a1,4(s0)
800046bc:	4609                	li	a2,2
800046be:	452d                	li	a0,11
800046c0:	81c1                	srli	a1,a1,0x10
800046c2:	a65ff0ef          	jal	ra,80004126 <digi_write>
800046c6:	440c                	lw	a1,8(s0)
800046c8:	4609                	li	a2,2
800046ca:	4539                	li	a0,14
800046cc:	05c2                	slli	a1,a1,0x10
800046ce:	81c1                	srli	a1,a1,0x10
800046d0:	a57ff0ef          	jal	ra,80004126 <digi_write>
800046d4:	440c                	lw	a1,8(s0)
800046d6:	4609                	li	a2,2
800046d8:	4535                	li	a0,13
800046da:	81c1                	srli	a1,a1,0x10
800046dc:	000209b7          	lui	s3,0x20
800046e0:	64b1                	lui	s1,0xc
800046e2:	a45ff0ef          	jal	ra,80004126 <digi_write>
800046e6:	19fd                	addi	s3,s3,-1
800046e8:	80008c37          	lui	s8,0x80008
800046ec:	35048493          	addi	s1,s1,848 # c350 <HEAP_SIZE+0xb350>
800046f0:	cdc1a783          	lw	a5,-804(gp) # 8000569c <registers_0_addr>
800046f4:	1147a783          	lw	a5,276(a5)
800046f8:	c23e                	sw	a5,4(sp)
800046fa:	4412                	lw	s0,4(sp)
800046fc:	01347433          	and	s0,s0,s3
80004700:	01247f63          	bgeu	s0,s2,8000471e <read_data+0xdc>
80004704:	000a2783          	lw	a5,0(s4)
80004708:	0785                	addi	a5,a5,1
8000470a:	00fa2023          	sw	a5,0(s4)
8000470e:	71cc2703          	lw	a4,1820(s8) # 8000871c <__stack_top+0xffffe76c>
80004712:	00e7d663          	bge	a5,a4,8000471e <read_data+0xdc>
80004716:	8526                	mv	a0,s1
80004718:	96bff0ef          	jal	ra,80004082 <hwdelay>
8000471c:	bfd1                	j	800046f0 <read_data+0xae>
8000471e:	4605                	li	a2,1
80004720:	4581                	li	a1,0
80004722:	452d                	li	a0,11
80004724:	a03ff0ef          	jal	ra,80004126 <digi_write>
80004728:	4605                	li	a2,1
8000472a:	4581                	li	a1,0
8000472c:	4539                	li	a0,14
8000472e:	9f9ff0ef          	jal	ra,80004126 <digi_write>
80004732:	4605                	li	a2,1
80004734:	4581                	li	a1,0
80004736:	4535                	li	a0,13
80004738:	9efff0ef          	jal	ra,80004126 <digi_write>
8000473c:	4609                	li	a2,2
8000473e:	4581                	li	a1,0
80004740:	452d                	li	a0,11
80004742:	9e5ff0ef          	jal	ra,80004126 <digi_write>
80004746:	4609                	li	a2,2
80004748:	4581                	li	a1,0
8000474a:	4539                	li	a0,14
8000474c:	9dbff0ef          	jal	ra,80004126 <digi_write>
80004750:	4609                	li	a2,2
80004752:	4581                	li	a1,0
80004754:	4535                	li	a0,13
80004756:	9d1ff0ef          	jal	ra,80004126 <digi_write>
8000475a:	6bc1                	lui	s7,0x10
8000475c:	800084b7          	lui	s1,0x80008
80004760:	80007937          	lui	s2,0x80007
80004764:	fffb8c93          	addi	s9,s7,-1 # ffff <HEAP_SIZE+0xefff>
80004768:	7a0aa783          	lw	a5,1952(s5)
8000476c:	06f47963          	bgeu	s0,a5,800047de <read_data+0x19c>
80004770:	cdc1a703          	lw	a4,-804(gp) # 8000569c <registers_0_addr>
80004774:	11472703          	lw	a4,276(a4)
80004778:	c43a                	sw	a4,8(sp)
8000477a:	4422                	lw	s0,8(sp)
8000477c:	043e                	slli	s0,s0,0xf
8000477e:	803d                	srli	s0,s0,0xf
80004780:	04f47f63          	bgeu	s0,a5,800047de <read_data+0x19c>
80004784:	000a2783          	lw	a5,0(s4)
80004788:	80008737          	lui	a4,0x80008
8000478c:	0785                	addi	a5,a5,1
8000478e:	00fa2023          	sw	a5,0(s4)
80004792:	71c72703          	lw	a4,1820(a4) # 8000871c <__stack_top+0xffffe76c>
80004796:	02e7cc63          	blt	a5,a4,800047ce <read_data+0x18c>
8000479a:	800085b7          	lui	a1,0x80008
8000479e:	80007437          	lui	s0,0x80007
800047a2:	6641                	lui	a2,0x10
800047a4:	da059e23          	sh	zero,-580(a1) # 80007dbc <__stack_top+0xffffde0c>
800047a8:	1671                	addi	a2,a2,-4
800047aa:	dbc58593          	addi	a1,a1,-580
800047ae:	dbc40513          	addi	a0,s0,-580 # 80006dbc <__stack_top+0xffffce0c>
800047b2:	4689                	li	a3,2
800047b4:	d2dff0ef          	jal	ra,800044e0 <bufWrite>
800047b8:	80007537          	lui	a0,0x80007
800047bc:	4609                	li	a2,2
800047be:	dbc40593          	addi	a1,s0,-580
800047c2:	c9050513          	addi	a0,a0,-880 # 80006c90 <__stack_top+0xffffcce0>
800047c6:	c25fb0ef          	jal	ra,800003ea <UART_send>
800047ca:	0141                	addi	sp,sp,16
800047cc:	ad05                	j	80004dfc <__riscv_restore_10>
800047ce:	6531                	lui	a0,0xc
800047d0:	35050513          	addi	a0,a0,848 # c350 <HEAP_SIZE+0xb350>
800047d4:	8afff0ef          	jal	ra,80004082 <hwdelay>
800047d8:	89a2                	mv	s3,s0
800047da:	844e                	mv	s0,s3
800047dc:	b771                	j	80004768 <read_data+0x126>
800047de:	4689                	li	a3,2
800047e0:	ffeb8613          	addi	a2,s7,-2
800047e4:	dbc48593          	addi	a1,s1,-580 # 80007dbc <__stack_top+0xffffde0c>
800047e8:	dbc90513          	addi	a0,s2,-580 # 80006dbc <__stack_top+0xffffce0c>
800047ec:	da049e23          	sh	zero,-580(s1)
800047f0:	cf1ff0ef          	jal	ra,800044e0 <bufWrite>
800047f4:	7a0aa603          	lw	a2,1952(s5)
800047f8:	4689                	li	a3,2
800047fa:	dbc48593          	addi	a1,s1,-580
800047fe:	060a                	slli	a2,a2,0x2
80004800:	dbc90513          	addi	a0,s2,-580
80004804:	cddff0ef          	jal	ra,800044e0 <bufWrite>
80004808:	89a2                	mv	s3,s0
8000480a:	4d05                	li	s10,1
8000480c:	7a0aa703          	lw	a4,1952(s5)
80004810:	413407b3          	sub	a5,s0,s3
80004814:	04e7c863          	blt	a5,a4,80004864 <read_data+0x222>
80004818:	dbc4d603          	lhu	a2,-580(s1)
8000481c:	80007437          	lui	s0,0x80007
80004820:	dbc90593          	addi	a1,s2,-580
80004824:	c9040513          	addi	a0,s0,-880 # 80006c90 <__stack_top+0xffffcce0>
80004828:	bc3fb0ef          	jal	ra,800003ea <UART_send>
8000482c:	000b2783          	lw	a5,0(s6)
80004830:	80007737          	lui	a4,0x80007
80004834:	0785                	addi	a5,a5,1
80004836:	00fb2023          	sw	a5,0(s6)
8000483a:	db872703          	lw	a4,-584(a4) # 80006db8 <__stack_top+0xffffce08>
8000483e:	f8e7cee3          	blt	a5,a4,800047da <read_data+0x198>
80004842:	6641                	lui	a2,0x10
80004844:	166d                	addi	a2,a2,-5
80004846:	dbc48593          	addi	a1,s1,-580
8000484a:	dbc90513          	addi	a0,s2,-580
8000484e:	4689                	li	a3,2
80004850:	da049e23          	sh	zero,-580(s1)
80004854:	c8dff0ef          	jal	ra,800044e0 <bufWrite>
80004858:	4609                	li	a2,2
8000485a:	dbc90593          	addi	a1,s2,-580
8000485e:	c9040513          	addi	a0,s0,-880
80004862:	b795                	j	800047c6 <read_data+0x184>
80004864:	cdc1a783          	lw	a5,-804(gp) # 8000569c <registers_0_addr>
80004868:	dbc48593          	addi	a1,s1,-580
8000486c:	dbc90513          	addi	a0,s2,-580
80004870:	11a7a023          	sw	s10,256(a5)
80004874:	1047a783          	lw	a5,260(a5)
80004878:	4689                	li	a3,2
8000487a:	19fd                	addi	s3,s3,-1
8000487c:	c63e                	sw	a5,12(sp)
8000487e:	4632                	lw	a2,12(sp)
80004880:	8241                	srli	a2,a2,0x10
80004882:	c5fff0ef          	jal	ra,800044e0 <bufWrite>
80004886:	4632                	lw	a2,12(sp)
80004888:	4689                	li	a3,2
8000488a:	dbc48593          	addi	a1,s1,-580
8000488e:	01967633          	and	a2,a2,s9
80004892:	dbc90513          	addi	a0,s2,-580
80004896:	c4bff0ef          	jal	ra,800044e0 <bufWrite>
8000489a:	bf8d                	j	8000480c <read_data+0x1ca>

8000489c <get_rates>:
get_rates():
8000489c:	520002ef          	jal	t0,80004dbc <__riscv_save_12>
800048a0:	00418793          	addi	a5,gp,4 # 800059c4 <mapped_channel_mask>
800048a4:	0001a223          	sw	zero,4(gp) # 800059c4 <mapped_channel_mask>
800048a8:	af010113          	addi	sp,sp,-1296
800048ac:	0007a223          	sw	zero,4(a5)
800048b0:	842a                	mv	s0,a0
800048b2:	c436                	sw	a3,8(sp)
800048b4:	0007a423          	sw	zero,8(a5)
800048b8:	c22e                	sw	a1,4(sp)
800048ba:	8a32                	mv	s4,a2
800048bc:	b55ff0ef          	jal	ra,80004410 <get_mapped_channels>
800048c0:	18000613          	li	a2,384
800048c4:	4581                	li	a1,0
800048c6:	0908                	addi	a0,sp,144
800048c8:	d402                	sw	zero,40(sp)
800048ca:	d602                	sw	zero,44(sp)
800048cc:	2d71                	jal	80004f68 <memset>
800048ce:	18000613          	li	a2,384
800048d2:	4581                	li	a1,0
800048d4:	0c08                	addi	a0,sp,528
800048d6:	2d49                	jal	80004f68 <memset>
800048d8:	00141493          	slli	s1,s0,0x1
800048dc:	18000613          	li	a2,384
800048e0:	4581                	li	a1,0
800048e2:	94a2                	add	s1,s1,s0
800048e4:	0f08                	addi	a0,sp,912
800048e6:	2549                	jal	80004f68 <memset>
800048e8:	048e                	slli	s1,s1,0x3
800048ea:	94a2                	add	s1,s1,s0
800048ec:	06000613          	li	a2,96
800048f0:	4581                	li	a1,0
800048f2:	1808                	addi	a0,sp,48
800048f4:	2d95                	jal	80004f68 <memset>
800048f6:	0486                	slli	s1,s1,0x1
800048f8:	02810c93          	addi	s9,sp,40
800048fc:	03000993          	li	s3,48
80004900:	4a81                	li	s5,0
80004902:	4405                	li	s0,1
80004904:	00418b13          	addi	s6,gp,4 # 800059c4 <mapped_channel_mask>
80004908:	89018b93          	addi	s7,gp,-1904 # 80005250 <channel_map>
8000490c:	4dfd                	li	s11,31
8000490e:	8622                	mv	a2,s0
80004910:	4585                	li	a1,1
80004912:	4575                	li	a0,29
80004914:	813ff0ef          	jal	ra,80004126 <digi_write>
80004918:	85a2                	mv	a1,s0
8000491a:	4559                	li	a0,22
8000491c:	86fff0ef          	jal	ra,8000418a <digi_read>
80004920:	85a2                	mv	a1,s0
80004922:	455d                	li	a0,23
80004924:	867ff0ef          	jal	ra,8000418a <digi_read>
80004928:	85a2                	mv	a1,s0
8000492a:	4561                	li	a0,24
8000492c:	85fff0ef          	jal	ra,8000418a <digi_read>
80004930:	8c2a                	mv	s8,a0
80004932:	85a2                	mv	a1,s0
80004934:	4565                	li	a0,25
80004936:	855ff0ef          	jal	ra,8000418a <digi_read>
8000493a:	010c1793          	slli	a5,s8,0x10
8000493e:	fd098c13          	addi	s8,s3,-48 # 1ffd0 <HEAP_SIZE+0x1efd0>
80004942:	8fc9                	or	a5,a5,a0
80004944:	0ffc7c13          	andi	s8,s8,255
80004948:	4d01                	li	s10,0
8000494a:	4712                	lw	a4,4(sp)
8000494c:	0ced4263          	blt	s10,a4,80004a10 <get_rates+0x174>
80004950:	4789                	li	a5,2
80004952:	0a85                	addi	s5,s5,1
80004954:	03098993          	addi	s3,s3,48
80004958:	0c91                	addi	s9,s9,4
8000495a:	0af41963          	bne	s0,a5,80004a0c <get_rates+0x170>
8000495e:	0bf00793          	li	a5,191
80004962:	2147f063          	bgeu	a5,s4,80004b62 <get_rates+0x2c6>
80004966:	800084b7          	lui	s1,0x80008
8000496a:	4401                	li	s0,0
8000496c:	4afd                	li	s5,31
8000496e:	80007937          	lui	s2,0x80007
80004972:	dc848493          	addi	s1,s1,-568 # 80007dc8 <__stack_top+0xffffde18>
80004976:	c0c18b93          	addi	s7,gp,-1012 # 800055cc <channel_mask>
8000497a:	4a05                	li	s4,1
8000497c:	06000c13          	li	s8,96
80004980:	0ff47793          	andi	a5,s0,255
80004984:	1c8ae063          	bltu	s5,s0,80004b44 <get_rates+0x2a8>
80004988:	c0c1a703          	lw	a4,-1012(gp) # 800055cc <channel_mask>
8000498c:	008a17b3          	sll	a5,s4,s0
80004990:	8ff9                	and	a5,a5,a4
80004992:	cba5                	beqz	a5,80004a02 <get_rates+0x166>
80004994:	cb695783          	lhu	a5,-842(s2) # 80006cb6 <__stack_top+0xffffcd06>
80004998:	00241993          	slli	s3,s0,0x2
8000499c:	4691                	li	a3,4
8000499e:	00178713          	addi	a4,a5,1
800049a2:	97a6                	add	a5,a5,s1
800049a4:	00878023          	sb	s0,0(a5)
800049a8:	091c                	addi	a5,sp,144
800049aa:	97ce                	add	a5,a5,s3
800049ac:	4390                	lw	a2,0(a5)
800049ae:	cb690593          	addi	a1,s2,-842
800049b2:	8526                	mv	a0,s1
800049b4:	cae91b23          	sh	a4,-842(s2)
800049b8:	b29ff0ef          	jal	ra,800044e0 <bufWrite>
800049bc:	0c1c                	addi	a5,sp,528
800049be:	97ce                	add	a5,a5,s3
800049c0:	4390                	lw	a2,0(a5)
800049c2:	4691                	li	a3,4
800049c4:	cb690593          	addi	a1,s2,-842
800049c8:	8526                	mv	a0,s1
800049ca:	b17ff0ef          	jal	ra,800044e0 <bufWrite>
800049ce:	0f1c                	addi	a5,sp,912
800049d0:	99be                	add	s3,s3,a5
800049d2:	0009a603          	lw	a2,0(s3)
800049d6:	4691                	li	a3,4
800049d8:	cb690593          	addi	a1,s2,-842
800049dc:	8526                	mv	a0,s1
800049de:	b03ff0ef          	jal	ra,800044e0 <bufWrite>
800049e2:	181c                	addi	a5,sp,48
800049e4:	97a2                	add	a5,a5,s0
800049e6:	0007c783          	lbu	a5,0(a5)
800049ea:	51010713          	addi	a4,sp,1296
800049ee:	4691                	li	a3,4
800049f0:	078a                	slli	a5,a5,0x2
800049f2:	97ba                	add	a5,a5,a4
800049f4:	b187a603          	lw	a2,-1256(a5)
800049f8:	cb690593          	addi	a1,s2,-842
800049fc:	8526                	mv	a0,s1
800049fe:	ae3ff0ef          	jal	ra,800044e0 <bufWrite>
80004a02:	0405                	addi	s0,s0,1
80004a04:	f7841ee3          	bne	s0,s8,80004980 <get_rates+0xe4>
80004a08:	4501                	li	a0,0
80004a0a:	aa5d                	j	80004bc0 <get_rates+0x324>
80004a0c:	4409                	li	s0,2
80004a0e:	b701                	j	8000490e <get_rates+0x72>
80004a10:	8526                	mv	a0,s1
80004a12:	c83e                	sw	a5,16(sp)
80004a14:	e6eff0ef          	jal	ra,80004082 <hwdelay>
80004a18:	8622                	mv	a2,s0
80004a1a:	4585                	li	a1,1
80004a1c:	4575                	li	a0,29
80004a1e:	f08ff0ef          	jal	ra,80004126 <digi_write>
80004a22:	85a2                	mv	a1,s0
80004a24:	4559                	li	a0,22
80004a26:	f64ff0ef          	jal	ra,8000418a <digi_read>
80004a2a:	85a2                	mv	a1,s0
80004a2c:	455d                	li	a0,23
80004a2e:	f5cff0ef          	jal	ra,8000418a <digi_read>
80004a32:	85a2                	mv	a1,s0
80004a34:	4561                	li	a0,24
80004a36:	f54ff0ef          	jal	ra,8000418a <digi_read>
80004a3a:	c62a                	sw	a0,12(sp)
80004a3c:	85a2                	mv	a1,s0
80004a3e:	4565                	li	a0,25
80004a40:	f4aff0ef          	jal	ra,8000418a <digi_read>
80004a44:	4832                	lw	a6,12(sp)
80004a46:	000ca703          	lw	a4,0(s9)
80004a4a:	47c2                	lw	a5,16(sp)
80004a4c:	0842                	slli	a6,a6,0x10
80004a4e:	00a86833          	or	a6,a6,a0
80004a52:	40f707b3          	sub	a5,a4,a5
80004a56:	97c2                	add	a5,a5,a6
80004a58:	00fca023          	sw	a5,0(s9)
80004a5c:	8762                	mv	a4,s8
80004a5e:	4e05                	li	t3,1
80004a60:	01374863          	blt	a4,s3,80004a70 <get_rates+0x1d4>
80004a64:	001d0893          	addi	a7,s10,1
80004a68:	0ff8fd13          	andi	s10,a7,255
80004a6c:	87c2                	mv	a5,a6
80004a6e:	bdf1                	j	8000494a <get_rates+0xae>
80004a70:	00eb87b3          	add	a5,s7,a4
80004a74:	0007c683          	lbu	a3,0(a5)
80004a78:	51010793          	addi	a5,sp,1296
80004a7c:	97b6                	add	a5,a5,a3
80004a7e:	b3578023          	sb	s5,-1248(a5)
80004a82:	0bc41163          	bne	s0,t3,80004b24 <get_rates+0x288>
80004a86:	08ede863          	bltu	s11,a4,80004b16 <get_rates+0x27a>
80004a8a:	0041a603          	lw	a2,4(gp) # 800059c4 <mapped_channel_mask>
80004a8e:	00e417b3          	sll	a5,s0,a4
80004a92:	8ff1                	and	a5,a5,a2
80004a94:	00f037b3          	snez	a5,a5
80004a98:	0ff7f793          	andi	a5,a5,255
80004a9c:	cbad                	beqz	a5,80004b0e <get_rates+0x272>
80004a9e:	853a                	mv	a0,a4
80004aa0:	03000593          	li	a1,48
80004aa4:	ce42                	sw	a6,28(sp)
80004aa6:	cc36                	sw	a3,24(sp)
80004aa8:	ca3a                	sw	a4,20(sp)
80004aaa:	2e7d                	jal	80004e68 <__umodsi3>
80004aac:	8622                	mv	a2,s0
80004aae:	0ff57593          	andi	a1,a0,255
80004ab2:	4555                	li	a0,21
80004ab4:	e72ff0ef          	jal	ra,80004126 <digi_write>
80004ab8:	03200513          	li	a0,50
80004abc:	dc6ff0ef          	jal	ra,80004082 <hwdelay>
80004ac0:	85a2                	mv	a1,s0
80004ac2:	4569                	li	a0,26
80004ac4:	ec6ff0ef          	jal	ra,8000418a <digi_read>
80004ac8:	c82a                	sw	a0,16(sp)
80004aca:	85a2                	mv	a1,s0
80004acc:	456d                	li	a0,27
80004ace:	ebcff0ef          	jal	ra,8000418a <digi_read>
80004ad2:	c62a                	sw	a0,12(sp)
80004ad4:	85a2                	mv	a1,s0
80004ad6:	4571                	li	a0,28
80004ad8:	eb2ff0ef          	jal	ra,8000418a <digi_read>
80004adc:	46e2                	lw	a3,24(sp)
80004ade:	51010793          	addi	a5,sp,1296
80004ae2:	4eb2                	lw	t4,12(sp)
80004ae4:	068a                	slli	a3,a3,0x2
80004ae6:	96be                	add	a3,a3,a5
80004ae8:	b806a603          	lw	a2,-1152(a3)
80004aec:	47c2                	lw	a5,16(sp)
80004aee:	4872                	lw	a6,28(sp)
80004af0:	4752                	lw	a4,20(sp)
80004af2:	963e                	add	a2,a2,a5
80004af4:	d006a783          	lw	a5,-768(a3)
80004af8:	b8c6a023          	sw	a2,-1152(a3)
80004afc:	4e05                	li	t3,1
80004afe:	97f6                	add	a5,a5,t4
80004b00:	d0f6a023          	sw	a5,-768(a3)
80004b04:	e806a783          	lw	a5,-384(a3)
80004b08:	953e                	add	a0,a0,a5
80004b0a:	e8a6a023          	sw	a0,-384(a3)
80004b0e:	0705                	addi	a4,a4,1
80004b10:	0ff77713          	andi	a4,a4,255
80004b14:	b7b1                	j	80004a60 <get_rates+0x1c4>
80004b16:	fe070793          	addi	a5,a4,-32
80004b1a:	004b2603          	lw	a2,4(s6)
80004b1e:	00f417b3          	sll	a5,s0,a5
80004b22:	bf85                	j	80004a92 <get_rates+0x1f6>
80004b24:	03f00793          	li	a5,63
80004b28:	00e7e963          	bltu	a5,a4,80004b3a <get_rates+0x29e>
80004b2c:	004b2603          	lw	a2,4(s6)
80004b30:	fe070793          	addi	a5,a4,-32
80004b34:	00fe17b3          	sll	a5,t3,a5
80004b38:	bfa9                	j	80004a92 <get_rates+0x1f6>
80004b3a:	008b2603          	lw	a2,8(s6)
80004b3e:	fc070793          	addi	a5,a4,-64
80004b42:	bfcd                	j	80004b34 <get_rates+0x298>
80004b44:	fe078713          	addi	a4,a5,-32
80004b48:	0ff77713          	andi	a4,a4,255
80004b4c:	8bfd                	andi	a5,a5,31
80004b4e:	00eae763          	bltu	s5,a4,80004b5c <get_rates+0x2c0>
80004b52:	004ba703          	lw	a4,4(s7)
80004b56:	00fa17b3          	sll	a5,s4,a5
80004b5a:	bd1d                	j	80004990 <get_rates+0xf4>
80004b5c:	008ba703          	lw	a4,8(s7)
80004b60:	bfdd                	j	80004b56 <get_rates+0x2ba>
80004b62:	06000593          	li	a1,96
80004b66:	8552                	mv	a0,s4
80004b68:	2601                	jal	80004e68 <__umodsi3>
80004b6a:	0ff57413          	andi	s0,a0,255
80004b6e:	4781                	li	a5,0
80004b70:	06000713          	li	a4,96
80004b74:	04f41963          	bne	s0,a5,80004bc6 <get_rates+0x32a>
80004b78:	06000593          	li	a1,96
80004b7c:	8552                	mv	a0,s4
80004b7e:	2c7d                	jal	80004e3c <__udivsi3>
80004b80:	51010793          	addi	a5,sp,1296
80004b84:	00241913          	slli	s2,s0,0x2
80004b88:	993e                	add	s2,s2,a5
80004b8a:	d0092583          	lw	a1,-768(s2)
80004b8e:	0ff57993          	andi	s3,a0,255
80004b92:	4505                	li	a0,1
80004b94:	41350533          	sub	a0,a0,s3
80004b98:	2451                	jal	80004e1c <__mulsi3>
80004b9a:	b8092583          	lw	a1,-1152(s2)
80004b9e:	84aa                	mv	s1,a0
80004ba0:	854e                	mv	a0,s3
80004ba2:	2cad                	jal	80004e1c <__mulsi3>
80004ba4:	51010793          	addi	a5,sp,1296
80004ba8:	943e                	add	s0,s0,a5
80004baa:	b2044783          	lbu	a5,-1248(s0)
80004bae:	51010713          	addi	a4,sp,1296
80004bb2:	9526                	add	a0,a0,s1
80004bb4:	078a                	slli	a5,a5,0x2
80004bb6:	97ba                	add	a5,a5,a4
80004bb8:	b187a783          	lw	a5,-1256(a5)
80004bbc:	4722                	lw	a4,8(sp)
80004bbe:	c31c                	sw	a5,0(a4)
80004bc0:	51010113          	addi	sp,sp,1296
80004bc4:	ac15                	j	80004df8 <__riscv_restore_12>
80004bc6:	0785                	addi	a5,a5,1
80004bc8:	0ff7f793          	andi	a5,a5,255
80004bcc:	fae794e3          	bne	a5,a4,80004b74 <get_rates+0x2d8>
80004bd0:	bd25                	j	80004a08 <get_rates+0x16c>

80004bd2 <outBufSend>:
outBufSend():
80004bd2:	21a002ef          	jal	t0,80004dec <__riscv_save_0>
80004bd6:	1141                	addi	sp,sp,-16
80004bd8:	c62e                	sw	a1,12(sp)
80004bda:	800055b7          	lui	a1,0x80005
80004bde:	c42a                	sw	a0,8(sp)
80004be0:	19c58593          	addi	a1,a1,412 # 8000519c <__stack_top+0xffffb1ec>
80004be4:	0028                	addi	a0,sp,8
80004be6:	8432                	mv	s0,a2
80004be8:	c236                	sw	a3,4(sp)
80004bea:	879fb0ef          	jal	ra,80000462 <UART_polled_tx_string>
80004bee:	4692                	lw	a3,4(sp)
80004bf0:	0028                	addi	a0,sp,8
80004bf2:	85a2                	mv	a1,s0
80004bf4:	8636                	mv	a2,a3
80004bf6:	ff4fb0ef          	jal	ra,800003ea <UART_send>
80004bfa:	0141                	addi	sp,sp,16
80004bfc:	ac11                	j	80004e10 <__riscv_restore_0>

80004bfe <resetFIFO>:
resetFIFO():
80004bfe:	1ee002ef          	jal	t0,80004dec <__riscv_save_0>
80004c02:	4601                	li	a2,0
80004c04:	4581                	li	a1,0
80004c06:	4541                	li	a0,16
80004c08:	d1eff0ef          	jal	ra,80004126 <digi_write>
80004c0c:	cdc1a783          	lw	a5,-804(gp) # 8000569c <registers_0_addr>
80004c10:	1f400513          	li	a0,500
80004c14:	2807a623          	sw	zero,652(a5)
80004c18:	c6aff0ef          	jal	ra,80004082 <hwdelay>
80004c1c:	cdc1a783          	lw	a5,-804(gp) # 8000569c <registers_0_addr>
80004c20:	4705                	li	a4,1
80004c22:	1f400513          	li	a0,500
80004c26:	28e7a623          	sw	a4,652(a5)
80004c2a:	c58ff0ef          	jal	ra,80004082 <hwdelay>
80004c2e:	4601                	li	a2,0
80004c30:	4585                	li	a1,1
80004c32:	4541                	li	a0,16
80004c34:	cf2ff0ef          	jal	ra,80004126 <digi_write>
80004c38:	4501                	li	a0,0
80004c3a:	aad9                	j	80004e10 <__riscv_restore_0>

80004c3c <setPreampGain>:
setPreampGain():
80004c3c:	1b0002ef          	jal	t0,80004dec <__riscv_save_0>
80004c40:	05f00793          	li	a5,95
80004c44:	842a                	mv	s0,a0
80004c46:	84ae                	mv	s1,a1
80004c48:	02a7e663          	bltu	a5,a0,80004c74 <setPreampGain+0x38>
80004c4c:	800067b7          	lui	a5,0x80006
80004c50:	00351713          	slli	a4,a0,0x3
80004c54:	2a078793          	addi	a5,a5,672 # 800062a0 <__stack_top+0xffffc2f0>
80004c58:	97ba                	add	a5,a5,a4
80004c5a:	862e                	mv	a2,a1
80004c5c:	4388                	lw	a0,0(a5)
80004c5e:	0057c583          	lbu	a1,5(a5)
80004c62:	0406                	slli	s0,s0,0x1
80004c64:	ddcfc0ef          	jal	ra,80001240 <LTC2634_write>
80004c68:	8f018793          	addi	a5,gp,-1808 # 800052b0 <default_gains_cal>
80004c6c:	943e                	add	s0,s0,a5
80004c6e:	00941023          	sh	s1,0(s0)
80004c72:	aa79                	j	80004e10 <__riscv_restore_0>
80004c74:	fa050413          	addi	s0,a0,-96
80004c78:	00341713          	slli	a4,s0,0x3
80004c7c:	d0418793          	addi	a5,gp,-764 # 800056c4 <strawsHV>
80004c80:	97ba                	add	a5,a5,a4
80004c82:	862e                	mv	a2,a1
80004c84:	4388                	lw	a0,0(a5)
80004c86:	0057c583          	lbu	a1,5(a5)
80004c8a:	0406                	slli	s0,s0,0x1
80004c8c:	db4fc0ef          	jal	ra,80001240 <LTC2634_write>
80004c90:	9b018793          	addi	a5,gp,-1616 # 80005370 <default_gains_hv>
80004c94:	bfe1                	j	80004c6c <setPreampGain+0x30>

80004c96 <setPreampThreshold>:
setPreampThreshold():
80004c96:	156002ef          	jal	t0,80004dec <__riscv_save_0>
80004c9a:	05f00793          	li	a5,95
80004c9e:	842a                	mv	s0,a0
80004ca0:	84ae                	mv	s1,a1
80004ca2:	02a7e663          	bltu	a5,a0,80004cce <setPreampThreshold+0x38>
80004ca6:	800067b7          	lui	a5,0x80006
80004caa:	00351713          	slli	a4,a0,0x3
80004cae:	2a078793          	addi	a5,a5,672 # 800062a0 <__stack_top+0xffffc2f0>
80004cb2:	97ba                	add	a5,a5,a4
80004cb4:	862e                	mv	a2,a1
80004cb6:	4388                	lw	a0,0(a5)
80004cb8:	0047c583          	lbu	a1,4(a5)
80004cbc:	0406                	slli	s0,s0,0x1
80004cbe:	d82fc0ef          	jal	ra,80001240 <LTC2634_write>
80004cc2:	a7018793          	addi	a5,gp,-1424 # 80005430 <default_threshs_cal>
80004cc6:	943e                	add	s0,s0,a5
80004cc8:	00941023          	sh	s1,0(s0)
80004ccc:	a291                	j	80004e10 <__riscv_restore_0>
80004cce:	fa050413          	addi	s0,a0,-96
80004cd2:	00341713          	slli	a4,s0,0x3
80004cd6:	d0418793          	addi	a5,gp,-764 # 800056c4 <strawsHV>
80004cda:	97ba                	add	a5,a5,a4
80004cdc:	862e                	mv	a2,a1
80004cde:	4388                	lw	a0,0(a5)
80004ce0:	0047c583          	lbu	a1,4(a5)
80004ce4:	0406                	slli	s0,s0,0x1
80004ce6:	d5afc0ef          	jal	ra,80001240 <LTC2634_write>
80004cea:	b3018793          	addi	a5,gp,-1232 # 800054f0 <default_threshs_hv>
80004cee:	bfe1                	j	80004cc6 <setPreampThreshold+0x30>

80004cf0 <init_DIGIs>:
init_DIGIs():
80004cf0:	0e2002ef          	jal	t0,80004dd2 <__riscv_save_4>
80004cf4:	4401                	li	s0,0
80004cf6:	4905                	li	s2,1
80004cf8:	49b1                	li	s3,12
80004cfa:	008914b3          	sll	s1,s2,s0
80004cfe:	04c2                	slli	s1,s1,0x10
80004d00:	80c1                	srli	s1,s1,0x10
80004d02:	8626                	mv	a2,s1
80004d04:	4581                	li	a1,0
80004d06:	4559                	li	a0,22
80004d08:	ea4ff0ef          	jal	ra,800043ac <adc_write>
80004d0c:	8626                	mv	a2,s1
80004d0e:	4581                	li	a1,0
80004d10:	4535                	li	a0,13
80004d12:	0405                	addi	s0,s0,1
80004d14:	e98ff0ef          	jal	ra,800043ac <adc_write>
80004d18:	ff3411e3          	bne	s0,s3,80004cfa <init_DIGIs+0xa>
80004d1c:	4601                	li	a2,0
80004d1e:	45a9                	li	a1,10
80004d20:	450d                	li	a0,3
80004d22:	c04ff0ef          	jal	ra,80004126 <digi_write>
80004d26:	4601                	li	a2,0
80004d28:	4595                	li	a1,5
80004d2a:	4511                	li	a0,4
80004d2c:	bfaff0ef          	jal	ra,80004126 <digi_write>
80004d30:	6441                	lui	s0,0x10
80004d32:	fff40593          	addi	a1,s0,-1 # ffff <HEAP_SIZE+0xefff>
80004d36:	4605                	li	a2,1
80004d38:	452d                	li	a0,11
80004d3a:	becff0ef          	jal	ra,80004126 <digi_write>
80004d3e:	fff40593          	addi	a1,s0,-1
80004d42:	4605                	li	a2,1
80004d44:	4539                	li	a0,14
80004d46:	be0ff0ef          	jal	ra,80004126 <digi_write>
80004d4a:	fff40593          	addi	a1,s0,-1
80004d4e:	4605                	li	a2,1
80004d50:	4535                	li	a0,13
80004d52:	bd4ff0ef          	jal	ra,80004126 <digi_write>
80004d56:	fff40593          	addi	a1,s0,-1
80004d5a:	4609                	li	a2,2
80004d5c:	452d                	li	a0,11
80004d5e:	bc8ff0ef          	jal	ra,80004126 <digi_write>
80004d62:	fff40593          	addi	a1,s0,-1
80004d66:	4609                	li	a2,2
80004d68:	4539                	li	a0,14
80004d6a:	bbcff0ef          	jal	ra,80004126 <digi_write>
80004d6e:	fff40593          	addi	a1,s0,-1
80004d72:	4609                	li	a2,2
80004d74:	4535                	li	a0,13
80004d76:	bb0ff0ef          	jal	ra,80004126 <digi_write>
80004d7a:	4601                	li	a2,0
80004d7c:	4581                	li	a1,0
80004d7e:	4529                	li	a0,10
80004d80:	ba6ff0ef          	jal	ra,80004126 <digi_write>
80004d84:	4601                	li	a2,0
80004d86:	4585                	li	a1,1
80004d88:	4531                	li	a0,12
80004d8a:	b9cff0ef          	jal	ra,80004126 <digi_write>
80004d8e:	cdc1a783          	lw	a5,-804(gp) # 8000569c <registers_0_addr>
80004d92:	6505                	lui	a0,0x1
80004d94:	fff50713          	addi	a4,a0,-1 # fff <STACK_SIZE+0x7ff>
80004d98:	2007a223          	sw	zero,516(a5)
80004d9c:	20e7a423          	sw	a4,520(a5)
80004da0:	4729                	li	a4,10
80004da2:	10e7ac23          	sw	a4,280(a5)
80004da6:	38850513          	addi	a0,a0,904
80004daa:	ad8ff0ef          	jal	ra,80004082 <hwdelay>
80004dae:	e51ff0ef          	jal	ra,80004bfe <resetFIFO>
80004db2:	cdc1a783          	lw	a5,-804(gp) # 8000569c <registers_0_addr>
80004db6:	2127a223          	sw	s2,516(a5)
80004dba:	a0b1                	j	80004e06 <__riscv_restore_4>

80004dbc <__riscv_save_12>:
__riscv_save_12():
80004dbc:	7139                	addi	sp,sp,-64
80004dbe:	4301                	li	t1,0
80004dc0:	c66e                	sw	s11,12(sp)
80004dc2:	a019                	j	80004dc8 <__riscv_save_10+0x4>

80004dc4 <__riscv_save_10>:
80004dc4:	7139                	addi	sp,sp,-64
80004dc6:	5341                	li	t1,-16
80004dc8:	c86a                	sw	s10,16(sp)
80004dca:	ca66                	sw	s9,20(sp)
80004dcc:	cc62                	sw	s8,24(sp)
80004dce:	ce5e                	sw	s7,28(sp)
80004dd0:	a019                	j	80004dd6 <__riscv_save_4+0x4>

80004dd2 <__riscv_save_4>:
80004dd2:	7139                	addi	sp,sp,-64
80004dd4:	5301                	li	t1,-32
80004dd6:	d05a                	sw	s6,32(sp)
80004dd8:	d256                	sw	s5,36(sp)
80004dda:	d452                	sw	s4,40(sp)
80004ddc:	d64e                	sw	s3,44(sp)
80004dde:	d84a                	sw	s2,48(sp)
80004de0:	da26                	sw	s1,52(sp)
80004de2:	dc22                	sw	s0,56(sp)
80004de4:	de06                	sw	ra,60(sp)
80004de6:	40610133          	sub	sp,sp,t1
80004dea:	8282                	jr	t0

80004dec <__riscv_save_0>:
__riscv_save_1():
80004dec:	1141                	addi	sp,sp,-16
80004dee:	c04a                	sw	s2,0(sp)
80004df0:	c226                	sw	s1,4(sp)
80004df2:	c422                	sw	s0,8(sp)
80004df4:	c606                	sw	ra,12(sp)
80004df6:	8282                	jr	t0

80004df8 <__riscv_restore_12>:
__riscv_restore_12():
80004df8:	4db2                	lw	s11,12(sp)
80004dfa:	0141                	addi	sp,sp,16

80004dfc <__riscv_restore_10>:
80004dfc:	4d02                	lw	s10,0(sp)
80004dfe:	4c92                	lw	s9,4(sp)
80004e00:	4c22                	lw	s8,8(sp)
80004e02:	4bb2                	lw	s7,12(sp)
80004e04:	0141                	addi	sp,sp,16

80004e06 <__riscv_restore_4>:
80004e06:	4b02                	lw	s6,0(sp)
80004e08:	4a92                	lw	s5,4(sp)
80004e0a:	4a22                	lw	s4,8(sp)
80004e0c:	49b2                	lw	s3,12(sp)
80004e0e:	0141                	addi	sp,sp,16

80004e10 <__riscv_restore_0>:
80004e10:	4902                	lw	s2,0(sp)
80004e12:	4492                	lw	s1,4(sp)
80004e14:	4422                	lw	s0,8(sp)
80004e16:	40b2                	lw	ra,12(sp)
80004e18:	0141                	addi	sp,sp,16
80004e1a:	8082                	ret

80004e1c <__mulsi3>:
__mulsi3():
80004e1c:	862a                	mv	a2,a0
80004e1e:	4501                	li	a0,0
80004e20:	0015f693          	andi	a3,a1,1
80004e24:	c291                	beqz	a3,80004e28 <__mulsi3+0xc>
80004e26:	9532                	add	a0,a0,a2
80004e28:	8185                	srli	a1,a1,0x1
80004e2a:	0606                	slli	a2,a2,0x1
80004e2c:	f9f5                	bnez	a1,80004e20 <__mulsi3+0x4>
80004e2e:	8082                	ret
80004e30:	0000                	unimp
	...

80004e34 <__divsi3>:
__divsi3():
80004e34:	02054e63          	bltz	a0,80004e70 <__umodsi3+0x8>
80004e38:	0405c363          	bltz	a1,80004e7e <__umodsi3+0x16>

80004e3c <__udivsi3>:
80004e3c:	862e                	mv	a2,a1
80004e3e:	85aa                	mv	a1,a0
80004e40:	557d                	li	a0,-1
80004e42:	c215                	beqz	a2,80004e66 <__udivsi3+0x2a>
80004e44:	4685                	li	a3,1
80004e46:	00b67863          	bgeu	a2,a1,80004e56 <__udivsi3+0x1a>
80004e4a:	00c05663          	blez	a2,80004e56 <__udivsi3+0x1a>
80004e4e:	0606                	slli	a2,a2,0x1
80004e50:	0686                	slli	a3,a3,0x1
80004e52:	feb66ce3          	bltu	a2,a1,80004e4a <__udivsi3+0xe>
80004e56:	4501                	li	a0,0
80004e58:	00c5e463          	bltu	a1,a2,80004e60 <__udivsi3+0x24>
80004e5c:	8d91                	sub	a1,a1,a2
80004e5e:	8d55                	or	a0,a0,a3
80004e60:	8285                	srli	a3,a3,0x1
80004e62:	8205                	srli	a2,a2,0x1
80004e64:	faf5                	bnez	a3,80004e58 <__udivsi3+0x1c>
80004e66:	8082                	ret

80004e68 <__umodsi3>:
80004e68:	8286                	mv	t0,ra
80004e6a:	3fc9                	jal	80004e3c <__udivsi3>
80004e6c:	852e                	mv	a0,a1
80004e6e:	8282                	jr	t0
80004e70:	40a00533          	neg	a0,a0
80004e74:	0005d763          	bgez	a1,80004e82 <__umodsi3+0x1a>
80004e78:	40b005b3          	neg	a1,a1
80004e7c:	b7c1                	j	80004e3c <__udivsi3>
80004e7e:	40b005b3          	neg	a1,a1
80004e82:	8286                	mv	t0,ra
80004e84:	3f65                	jal	80004e3c <__udivsi3>
80004e86:	40a00533          	neg	a0,a0
80004e8a:	8282                	jr	t0

80004e8c <__modsi3>:
__modsi3():
80004e8c:	8286                	mv	t0,ra
80004e8e:	0005c763          	bltz	a1,80004e9c <__modsi3+0x10>
80004e92:	00054963          	bltz	a0,80004ea4 <__modsi3+0x18>
80004e96:	375d                	jal	80004e3c <__udivsi3>
80004e98:	852e                	mv	a0,a1
80004e9a:	8282                	jr	t0
80004e9c:	40b005b3          	neg	a1,a1
80004ea0:	fe055be3          	bgez	a0,80004e96 <__modsi3+0xa>
80004ea4:	40a00533          	neg	a0,a0
80004ea8:	3f51                	jal	80004e3c <__udivsi3>
80004eaa:	40b00533          	neg	a0,a1
80004eae:	8282                	jr	t0
	...

80004eb2 <memcpy>:
memcpy():
80004eb2:	00a5c7b3          	xor	a5,a1,a0
80004eb6:	8b8d                	andi	a5,a5,3
80004eb8:	00c50733          	add	a4,a0,a2
80004ebc:	e781                	bnez	a5,80004ec4 <memcpy+0x12>
80004ebe:	478d                	li	a5,3
80004ec0:	00c7ee63          	bltu	a5,a2,80004edc <memcpy+0x2a>
80004ec4:	87aa                	mv	a5,a0
80004ec6:	0ae57063          	bgeu	a0,a4,80004f66 <memcpy+0xb4>
80004eca:	0005c683          	lbu	a3,0(a1)
80004ece:	0785                	addi	a5,a5,1
80004ed0:	0585                	addi	a1,a1,1
80004ed2:	fed78fa3          	sb	a3,-1(a5)
80004ed6:	fee7eae3          	bltu	a5,a4,80004eca <memcpy+0x18>
80004eda:	8082                	ret
80004edc:	00357693          	andi	a3,a0,3
80004ee0:	87aa                	mv	a5,a0
80004ee2:	ca91                	beqz	a3,80004ef6 <memcpy+0x44>
80004ee4:	0005c683          	lbu	a3,0(a1)
80004ee8:	0785                	addi	a5,a5,1
80004eea:	0585                	addi	a1,a1,1
80004eec:	fed78fa3          	sb	a3,-1(a5)
80004ef0:	0037f693          	andi	a3,a5,3
80004ef4:	b7fd                	j	80004ee2 <memcpy+0x30>
80004ef6:	ffc77693          	andi	a3,a4,-4
80004efa:	fe068613          	addi	a2,a3,-32
80004efe:	06c7f063          	bgeu	a5,a2,80004f5e <memcpy+0xac>
80004f02:	0005a383          	lw	t2,0(a1)
80004f06:	0045a283          	lw	t0,4(a1)
80004f0a:	0085af83          	lw	t6,8(a1)
80004f0e:	00c5af03          	lw	t5,12(a1)
80004f12:	0105ae83          	lw	t4,16(a1)
80004f16:	0145ae03          	lw	t3,20(a1)
80004f1a:	0185a303          	lw	t1,24(a1)
80004f1e:	01c5a883          	lw	a7,28(a1)
80004f22:	02458593          	addi	a1,a1,36
80004f26:	0077a023          	sw	t2,0(a5)
80004f2a:	ffc5a803          	lw	a6,-4(a1)
80004f2e:	0057a223          	sw	t0,4(a5)
80004f32:	01f7a423          	sw	t6,8(a5)
80004f36:	01e7a623          	sw	t5,12(a5)
80004f3a:	01d7a823          	sw	t4,16(a5)
80004f3e:	01c7aa23          	sw	t3,20(a5)
80004f42:	0067ac23          	sw	t1,24(a5)
80004f46:	0117ae23          	sw	a7,28(a5)
80004f4a:	02478793          	addi	a5,a5,36
80004f4e:	ff07ae23          	sw	a6,-4(a5)
80004f52:	b775                	j	80004efe <memcpy+0x4c>
80004f54:	4190                	lw	a2,0(a1)
80004f56:	0791                	addi	a5,a5,4
80004f58:	0591                	addi	a1,a1,4
80004f5a:	fec7ae23          	sw	a2,-4(a5)
80004f5e:	fed7ebe3          	bltu	a5,a3,80004f54 <memcpy+0xa2>
80004f62:	f6e7e4e3          	bltu	a5,a4,80004eca <memcpy+0x18>
80004f66:	8082                	ret

80004f68 <memset>:
memset():
80004f68:	433d                	li	t1,15
80004f6a:	872a                	mv	a4,a0
80004f6c:	02c37363          	bgeu	t1,a2,80004f92 <memset+0x2a>
80004f70:	00f77793          	andi	a5,a4,15
80004f74:	efbd                	bnez	a5,80004ff2 <memset+0x8a>
80004f76:	e5ad                	bnez	a1,80004fe0 <memset+0x78>
80004f78:	ff067693          	andi	a3,a2,-16
80004f7c:	8a3d                	andi	a2,a2,15
80004f7e:	96ba                	add	a3,a3,a4
80004f80:	c30c                	sw	a1,0(a4)
80004f82:	c34c                	sw	a1,4(a4)
80004f84:	c70c                	sw	a1,8(a4)
80004f86:	c74c                	sw	a1,12(a4)
80004f88:	0741                	addi	a4,a4,16
80004f8a:	fed76be3          	bltu	a4,a3,80004f80 <memset+0x18>
80004f8e:	e211                	bnez	a2,80004f92 <memset+0x2a>
80004f90:	8082                	ret
80004f92:	40c306b3          	sub	a3,t1,a2
80004f96:	068a                	slli	a3,a3,0x2
80004f98:	00000297          	auipc	t0,0x0
80004f9c:	9696                	add	a3,a3,t0
80004f9e:	00a68067          	jr	10(a3)
80004fa2:	00b70723          	sb	a1,14(a4)
80004fa6:	00b706a3          	sb	a1,13(a4)
80004faa:	00b70623          	sb	a1,12(a4)
80004fae:	00b705a3          	sb	a1,11(a4)
80004fb2:	00b70523          	sb	a1,10(a4)
80004fb6:	00b704a3          	sb	a1,9(a4)
80004fba:	00b70423          	sb	a1,8(a4)
80004fbe:	00b703a3          	sb	a1,7(a4)
80004fc2:	00b70323          	sb	a1,6(a4)
80004fc6:	00b702a3          	sb	a1,5(a4)
80004fca:	00b70223          	sb	a1,4(a4)
80004fce:	00b701a3          	sb	a1,3(a4)
80004fd2:	00b70123          	sb	a1,2(a4)
80004fd6:	00b700a3          	sb	a1,1(a4)
80004fda:	00b70023          	sb	a1,0(a4)
80004fde:	8082                	ret
80004fe0:	0ff5f593          	andi	a1,a1,255
80004fe4:	00859693          	slli	a3,a1,0x8
80004fe8:	8dd5                	or	a1,a1,a3
80004fea:	01059693          	slli	a3,a1,0x10
80004fee:	8dd5                	or	a1,a1,a3
80004ff0:	b761                	j	80004f78 <memset+0x10>
80004ff2:	00279693          	slli	a3,a5,0x2
80004ff6:	00000297          	auipc	t0,0x0
80004ffa:	9696                	add	a3,a3,t0
80004ffc:	8286                	mv	t0,ra
80004ffe:	fa8680e7          	jalr	-88(a3)
80005002:	8096                	mv	ra,t0
80005004:	17c1                	addi	a5,a5,-16
80005006:	8f1d                	sub	a4,a4,a5
80005008:	963e                	add	a2,a2,a5
8000500a:	f8c374e3          	bgeu	t1,a2,80004f92 <memset+0x2a>
8000500e:	b7a5                	j	80004f76 <memset+0xe>
80005010:	6568                	flw	fa0,76(a0)
80005012:	6c6c                	flw	fa1,92(s0)
80005014:	0000006f          	j	80005014 <memset+0xac>

80005018 <g_pwm_id_mask_lut>:
80005018:	04020100 40201008 04020180 40201008     ...... @...... @
80005028:	00000080                                ....

8000502c <g_pwm_negedge_offset_lut>:
8000502c:	00000000 00000014 0000001c 00000024     ............$...
8000503c:	0000002c 00000034 0000003c 00000044     ,...4...<...D...
8000504c:	0000004c 00000054 0000005c 00000064     L...T...\...d...
8000505c:	0000006c 00000074 0000007c 00000084     l...t...|.......
8000506c:	0000008c                                ....

80005070 <g_pwm_posedge_offset_lut>:
80005070:	00000000 00000010 00000018 00000020     ............ ...
80005080:	00000028 00000030 00000038 00000040     (...0...8...@...
80005090:	00000048 00000050 00000058 00000060     H...P...X...`...
800050a0:	00000068 00000070 00000078 00000080     h...p...x.......
800050b0:	00000088                                ....

800050b4 <default_caldac>:
800050b4:	03e803e8 03e803e8 03e803e8 03e803e8     ................
800050c4:	204c4143 000a4b4f 4f205648 00000a4b     CAL OK..HV OK...
800050d4:	2d434f52 6c61433e 000a5820 2d434f52     ROC->Cal X..ROC-
800050e4:	6c61433e 0000000a 2d434f52 2056483e     >Cal....ROC->HV 
800050f4:	00000a58 2d434f52 0a56483e 00000000     X...ROC->HV.....
80005104:	2d4c4143 434f523e 000a5820 2d4c4143     CAL->ROC X..CAL-
80005114:	434f523e 0000000a 3e2d5648 20434f52     >ROC....HV->ROC 
80005124:	00000a58 3e2d5648 0a434f52 00000000     X...HV->ROC.....
80005134:	74696e49 696c6169 6974617a 63206e6f     Initialization c
80005144:	6c706d6f 64657465 00000000 626f7250     ompleted....Prob
80005154:	206d656c 636e7973 6e6f7268 6e697a69     lem synchronizin
80005164:	6f632067 6e616d6d 00000a64 57220d0a     g command....."W
80005174:	6f636c65 7420656d 6874206f 4f522065     elcome to the RO
80005184:	090a2243 53202d20 206e6165 6e6e6f43     C".. - Sean Conn
80005194:	0a797265 00000000 696e6f6d 69726f74     ery.....monitori
800051a4:	000a676e 00000000 00000000              ng..........
Contents of the .debug_frame section:


00000000 0000000c ffffffff CIE
  Version:               1
  Augmentation:          ""
  Code alignment factor: 1
  Data alignment factor: -4
  Return address column: 1

  DW_CFA_def_cfa_register: r2 (sp)
  DW_CFA_nop

00000010 0000000c 00000000 FDE cie=00000000 pc=80004eb2..80004f68

